
ed01ebfbc9eb5bbea545af4d01bf5f1071661840480439c6e5babe8e080e41aa.exe:	file format COFF-i386

Disassembly of section .text:
.text:
  401000:	56 	push	esi
  401001:	33 f6 	xor	esi, esi
  401003:	39 74 24 0c 	cmp	dword ptr [esp + 12], esi
  401007:	57 	push	edi
  401008:	74 07 	je	7 <.text+0x11>
  40100a:	68 1c e0 40 00 	push	4251676
  40100f:	eb 05 	jmp	5 <.text+0x16>
  401011:	68 18 e0 40 00 	push	4251672
  401016:	68 10 e0 40 00 	push	4251664
  40101b:	ff 15 18 81 40 00 	call	dword ptr [4227352]
  401021:	8b f8 	mov	edi, eax
  401023:	59 	pop	ecx
  401024:	3b fe 	cmp	edi, esi
  401026:	59 	pop	ecx
  401027:	75 04 	jne	4 <.text+0x2D>
  401029:	33 c0 	xor	eax, eax
  40102b:	eb 34 	jmp	52 <.text+0x61>
  40102d:	39 74 24 10 	cmp	dword ptr [esp + 16], esi
  401031:	57 	push	edi
  401032:	6a 01 	push	1
  401034:	68 0c 03 00 00 	push	780
  401039:	ff 74 24 18 	push	dword ptr [esp + 24]
  40103d:	74 08 	je	8 <.text+0x47>
  40103f:	ff 15 14 81 40 00 	call	dword ptr [4227348]
  401045:	eb 06 	jmp	6 <.text+0x4D>
  401047:	ff 15 10 81 40 00 	call	dword ptr [4227344]
  40104d:	83 c4 10 	add	esp, 16
  401050:	85 c0 	test	eax, eax
  401052:	74 03 	je	3 <.text+0x57>
  401054:	6a 01 	push	1
  401056:	5e 	pop	esi
  401057:	57 	push	edi
  401058:	ff 15 0c 81 40 00 	call	dword ptr [4227340]
  40105e:	59 	pop	ecx
  40105f:	8b c6 	mov	eax, esi
  401061:	5f 	pop	edi
  401062:	5e 	pop	esi
  401063:	c3 	ret
  401064:	55 	push	ebp
  401065:	8b ec 	mov	ebp, esp
  401067:	83 ec 54 	sub	esp, 84
  40106a:	56 	push	esi
  40106b:	57 	push	edi
  40106c:	6a 10 	push	16
  40106e:	33 c0 	xor	eax, eax
  401070:	59 	pop	ecx
  401071:	8d 7d b0 	lea	edi, [ebp - 80]
  401074:	c7 45 ac 44 00 00 00 	mov	dword ptr [ebp - 84], 68
  40107b:	33 f6 	xor	esi, esi
  40107d:	f3 	rep
  40107e:	ab 	stosd	dword ptr es:[edi], eax
  40107f:	8d 7d f4 	lea	edi, [ebp - 12]
  401082:	89 75 f0 	mov	dword ptr [ebp - 16], esi
  401085:	ab 	stosd	dword ptr es:[edi], eax
  401086:	ab 	stosd	dword ptr es:[edi], eax
  401087:	ab 	stosd	dword ptr es:[edi], eax
  401088:	6a 01 	push	1
  40108a:	8d 45 f0 	lea	eax, [ebp - 16]
  40108d:	5f 	pop	edi
  40108e:	66 89 75 dc 	mov	word ptr [ebp - 36], si
  401092:	50 	push	eax
  401093:	8d 45 ac 	lea	eax, [ebp - 84]
  401096:	50 	push	eax
  401097:	56 	push	esi
  401098:	56 	push	esi
  401099:	68 00 00 00 08 	push	134217728
  40109e:	56 	push	esi
  40109f:	56 	push	esi
  4010a0:	56 	push	esi
  4010a1:	89 7d d8 	mov	dword ptr [ebp - 40], edi
  4010a4:	ff 75 08 	push	dword ptr [ebp + 8]
  4010a7:	56 	push	esi
  4010a8:	ff 15 ec 80 40 00 	call	dword ptr [4227308]
  4010ae:	85 c0 	test	eax, eax
  4010b0:	74 45 	je	69 <.text+0xF7>
  4010b2:	39 75 0c 	cmp	dword ptr [ebp + 12], esi
  4010b5:	74 2c 	je	44 <.text+0xE3>
  4010b7:	ff 75 0c 	push	dword ptr [ebp + 12]
  4010ba:	ff 75 f0 	push	dword ptr [ebp - 16]
  4010bd:	ff 15 f4 80 40 00 	call	dword ptr [4227316]
  4010c3:	85 c0 	test	eax, eax
  4010c5:	74 0b 	je	11 <.text+0xD2>
  4010c7:	6a ff 	push	-1
  4010c9:	ff 75 f0 	push	dword ptr [ebp - 16]
  4010cc:	ff 15 f8 80 40 00 	call	dword ptr [4227320]
  4010d2:	39 75 10 	cmp	dword ptr [ebp + 16], esi
  4010d5:	74 0c 	je	12 <.text+0xE3>
  4010d7:	ff 75 10 	push	dword ptr [ebp + 16]
  4010da:	ff 75 f0 	push	dword ptr [ebp - 16]
  4010dd:	ff 15 fc 80 40 00 	call	dword ptr [4227324]
  4010e3:	ff 75 f0 	push	dword ptr [ebp - 16]
  4010e6:	8b 35 f0 80 40 00 	mov	esi, dword ptr [4227312]
  4010ec:	ff d6 	call	esi
  4010ee:	ff 75 f4 	push	dword ptr [ebp - 12]
  4010f1:	ff d6 	call	esi
  4010f3:	8b c7 	mov	eax, edi
  4010f5:	eb 02 	jmp	2 <.text+0xF9>
  4010f7:	33 c0 	xor	eax, eax
  4010f9:	5f 	pop	edi
  4010fa:	5e 	pop	esi
  4010fb:	c9 	leave
  4010fc:	c3 	ret
  4010fd:	55 	push	ebp
  4010fe:	8b ec 	mov	ebp, esp
  401100:	81 ec dc 02 00 00 	sub	esp, 732
  401106:	56 	push	esi
  401107:	57 	push	edi
  401108:	6a 05 	push	5
  40110a:	be 4c e0 40 00 	mov	esi, 4251724
  40110f:	59 	pop	ecx
  401110:	8d bd 2c ff ff ff 	lea	edi, [ebp - 212]
  401116:	f3 	rep
  401117:	a5 	movsd	dword ptr es:[edi], dword ptr [esi]
  401118:	6a 2d 	push	45
  40111a:	33 c0 	xor	eax, eax
  40111c:	20 85 24 fd ff ff 	and	byte ptr [ebp - 732], al
  401122:	59 	pop	ecx
  401123:	8d bd 40 ff ff ff 	lea	edi, [ebp - 192]
  401129:	83 65 fc 00 	and	dword ptr [ebp - 4], 0
  40112d:	f3 	rep
  40112e:	ab 	stosd	dword ptr es:[edi], eax
  40112f:	b9 81 00 00 00 	mov	ecx, 129
  401134:	8d bd 25 fd ff ff 	lea	edi, [ebp - 731]
  40113a:	f3 	rep
  40113b:	ab 	stosd	dword ptr es:[edi], eax
  40113c:	66 ab 	stosw	word ptr es:[edi], ax
  40113e:	aa 	stosb	byte ptr es:[edi], al
  40113f:	8d 85 2c ff ff ff 	lea	eax, [ebp - 212]
  401145:	68 34 e0 40 00 	push	4251700
  40114a:	50 	push	eax
  40114b:	ff 15 34 81 40 00 	call	dword ptr [4227380]
  401151:	83 65 f8 00 	and	dword ptr [ebp - 8], 0
  401155:	59 	pop	ecx
  401156:	59 	pop	ecx
  401157:	bf 30 e0 40 00 	mov	edi, 4251696
  40115c:	8d 45 fc 	lea	eax, [ebp - 4]
  40115f:	33 f6 	xor	esi, esi
  401161:	39 75 f8 	cmp	dword ptr [ebp - 8], esi
  401164:	50 	push	eax
  401165:	8d 85 2c ff ff ff 	lea	eax, [ebp - 212]
  40116b:	50 	push	eax
  40116c:	75 07 	jne	7 <.text+0x175>
  40116e:	68 02 00 00 80 	push	2147483650
  401173:	eb 05 	jmp	5 <.text+0x17A>
  401175:	68 01 00 00 80 	push	2147483649
  40117a:	ff 15 14 80 40 00 	call	dword ptr [4227092]
  401180:	39 75 fc 	cmp	dword ptr [ebp - 4], esi
  401183:	0f 84 84 00 00 00 	je	132 <.text+0x20D>
  401189:	39 75 08 	cmp	dword ptr [ebp + 8], esi
  40118c:	74 3e 	je	62 <.text+0x1CC>
  40118e:	8d 85 24 fd ff ff 	lea	eax, [ebp - 732]
  401194:	50 	push	eax
  401195:	68 07 02 00 00 	push	519
  40119a:	ff 15 d4 80 40 00 	call	dword ptr [4227284]
  4011a0:	8d 85 24 fd ff ff 	lea	eax, [ebp - 732]
  4011a6:	50 	push	eax
  4011a7:	e8 08 65 00 00 	call	25864 <.text+0x66B4>
  4011ac:	59 	pop	ecx
  4011ad:	40 	inc	eax
  4011ae:	50 	push	eax
  4011af:	8d 85 24 fd ff ff 	lea	eax, [ebp - 732]
  4011b5:	50 	push	eax
  4011b6:	6a 01 	push	1
  4011b8:	56 	push	esi
  4011b9:	57 	push	edi
  4011ba:	ff 75 fc 	push	dword ptr [ebp - 4]
  4011bd:	ff 15 18 80 40 00 	call	dword ptr [4227096]
  4011c3:	8b f0 	mov	esi, eax
  4011c5:	f7 de 	neg	esi
  4011c7:	1b f6 	sbb	esi, esi
  4011c9:	46 	inc	esi
  4011ca:	eb 34 	jmp	52 <.text+0x200>
  4011cc:	8d 45 f4 	lea	eax, [ebp - 12]
  4011cf:	c7 45 f4 07 02 00 00 	mov	dword ptr [ebp - 12], 519
  4011d6:	50 	push	eax
  4011d7:	8d 85 24 fd ff ff 	lea	eax, [ebp - 732]
  4011dd:	50 	push	eax
  4011de:	56 	push	esi
  4011df:	56 	push	esi
  4011e0:	57 	push	edi
  4011e1:	ff 75 fc 	push	dword ptr [ebp - 4]
  4011e4:	ff 15 1c 80 40 00 	call	dword ptr [4227100]
  4011ea:	8b f0 	mov	esi, eax
  4011ec:	f7 de 	neg	esi
  4011ee:	1b f6 	sbb	esi, esi
  4011f0:	46 	inc	esi
  4011f1:	74 0d 	je	13 <.text+0x200>
  4011f3:	8d 85 24 fd ff ff 	lea	eax, [ebp - 732]
  4011f9:	50 	push	eax
  4011fa:	ff 15 d8 80 40 00 	call	dword ptr [4227288]
  401200:	ff 75 fc 	push	dword ptr [ebp - 4]
  401203:	ff 15 20 80 40 00 	call	dword ptr [4227104]
  401209:	85 f6 	test	esi, esi
  40120b:	75 13 	jne	19 <.text+0x220>
  40120d:	ff 45 f8 	inc	dword ptr [ebp - 8]
  401210:	83 7d f8 02 	cmp	dword ptr [ebp - 8], 2
  401214:	0f 8c 42 ff ff ff 	jl	-190 <.text+0x15C>
  40121a:	33 c0 	xor	eax, eax
  40121c:	5f 	pop	edi
  40121d:	5e 	pop	esi
  40121e:	c9 	leave
  40121f:	c3 	ret
  401220:	6a 01 	push	1
  401222:	58 	pop	eax
  401223:	eb f7 	jmp	-9 <.text+0x21C>
  401225:	55 	push	ebp
  401226:	8b ec 	mov	ebp, esp
  401228:	81 ec 98 01 00 00 	sub	esp, 408
  40122e:	66 a1 74 f8 40 00 	mov	ax, word ptr [4257908]
  401234:	53 	push	ebx
  401235:	56 	push	esi
  401236:	57 	push	edi
  401237:	6a 63 	push	99
  401239:	66 89 85 68 fe ff ff 	mov	word ptr [ebp - 408], ax
  401240:	59 	pop	ecx
  401241:	33 c0 	xor	eax, eax
  401243:	8d bd 6a fe ff ff 	lea	edi, [ebp - 406]
  401249:	c7 45 f8 8f 01 00 00 	mov	dword ptr [ebp - 8], 399
  401250:	f3 	rep
  401251:	ab 	stosd	dword ptr es:[edi], eax
  401252:	66 ab 	stosw	word ptr es:[edi], ax
  401254:	8d 45 f8 	lea	eax, [ebp - 8]
  401257:	50 	push	eax
  401258:	8d 85 68 fe ff ff 	lea	eax, [ebp - 408]
  40125e:	50 	push	eax
  40125f:	ff 15 d0 80 40 00 	call	dword ptr [4227280]
  401265:	8b 35 38 81 40 00 	mov	esi, dword ptr [4227384]
  40126b:	83 65 fc 00 	and	dword ptr [ebp - 4], 0
  40126f:	6a 01 	push	1
  401271:	8d 85 68 fe ff ff 	lea	eax, [ebp - 408]
  401277:	5b 	pop	ebx
  401278:	50 	push	eax
  401279:	ff d6 	call	esi
  40127b:	85 c0 	test	eax, eax
  40127d:	59 	pop	ecx
  40127e:	76 20 	jbe	32 <.text+0x2A0>
  401280:	8d bd 68 fe ff ff 	lea	edi, [ebp - 408]
  401286:	0f b7 07 	movzx	eax, word ptr [edi]
  401289:	0f af d8 	imul	ebx, eax
  40128c:	ff 45 fc 	inc	dword ptr [ebp - 4]
  40128f:	8d 85 68 fe ff ff 	lea	eax, [ebp - 408]
  401295:	47 	inc	edi
  401296:	50 	push	eax
  401297:	47 	inc	edi
  401298:	ff d6 	call	esi
  40129a:	39 45 fc 	cmp	dword ptr [ebp - 4], eax
  40129d:	59 	pop	ecx
  40129e:	72 e6 	jb	-26 <.text+0x286>
  4012a0:	53 	push	ebx
  4012a1:	ff 15 24 81 40 00 	call	dword ptr [4227364]
  4012a7:	8b 1d 20 81 40 00 	mov	ebx, dword ptr [4227360]
  4012ad:	59 	pop	ecx
  4012ae:	ff d3 	call	ebx
  4012b0:	6a 08 	push	8
  4012b2:	33 ff 	xor	edi, edi
  4012b4:	99 	cdq
  4012b5:	59 	pop	ecx
  4012b6:	f7 f9 	idiv	ecx
  4012b8:	8b f2 	mov	esi, edx
  4012ba:	03 f1 	add	esi, ecx
  4012bc:	85 f6 	test	esi, esi
  4012be:	7e 16 	jle	22 <.text+0x2D6>
  4012c0:	ff d3 	call	ebx
  4012c2:	6a 1a 	push	26
  4012c4:	99 	cdq
  4012c5:	59 	pop	ecx
  4012c6:	f7 f9 	idiv	ecx
  4012c8:	8b 45 08 	mov	eax, dword ptr [ebp + 8]
  4012cb:	80 c2 61 	add	dl, 97
  4012ce:	88 14 07 	mov	byte ptr [edi + eax], dl
  4012d1:	47 	inc	edi
  4012d2:	3b fe 	cmp	edi, esi
  4012d4:	7c ea 	jl	-22 <.text+0x2C0>
  4012d6:	83 c6 03 	add	esi, 3
  4012d9:	3b fe 	cmp	edi, esi
  4012db:	7d 14 	jge	20 <.text+0x2F1>
  4012dd:	ff d3 	call	ebx
  4012df:	6a 0a 	push	10
  4012e1:	99 	cdq
  4012e2:	59 	pop	ecx
  4012e3:	f7 f9 	idiv	ecx
  4012e5:	8b 45 08 	mov	eax, dword ptr [ebp + 8]
  4012e8:	80 c2 30 	add	dl, 48
  4012eb:	88 14 07 	mov	byte ptr [edi + eax], dl
  4012ee:	47 	inc	edi
  4012ef:	eb e8 	jmp	-24 <.text+0x2D9>
  4012f1:	8b 45 08 	mov	eax, dword ptr [ebp + 8]
  4012f4:	80 24 07 00 	and	byte ptr [edi + eax], 0
  4012f8:	5f 	pop	edi
  4012f9:	5e 	pop	esi
  4012fa:	5b 	pop	ebx
  4012fb:	c9 	leave
  4012fc:	c3 	ret
  4012fd:	b8 66 79 40 00 	mov	eax, 4225382
  401302:	e8 c1 63 00 00 	call	25537 <.text+0x66C8>
  401307:	51 	push	ecx
  401308:	56 	push	esi
  401309:	8b f1 	mov	esi, ecx
  40130b:	57 	push	edi
  40130c:	89 75 f0 	mov	dword ptr [ebp - 16], esi
  40130f:	8d 4e 04 	lea	ecx, [esi + 4]
  401312:	e8 c6 04 00 00 	call	1222 <.text+0x7DD>
  401317:	33 ff 	xor	edi, edi
  401319:	8d 4e 2c 	lea	ecx, [esi + 44]
  40131c:	89 7d fc 	mov	dword ptr [ebp - 4], edi
  40131f:	e8 b9 04 00 00 	call	1209 <.text+0x7DD>
  401324:	8d 4e 54 	lea	ecx, [esi + 84]
  401327:	c6 45 fc 01 	mov	byte ptr [ebp - 4], 1
  40132b:	e8 16 17 00 00 	call	5910 <.text+0x1A46>
  401330:	8b 4d f4 	mov	ecx, dword ptr [ebp - 12]
  401333:	89 be c8 04 00 00 	mov	dword ptr [esi + 1224], edi
  401339:	89 be cc 04 00 00 	mov	dword ptr [esi + 1228], edi
  40133f:	89 be d0 04 00 00 	mov	dword ptr [esi + 1232], edi
  401345:	89 be d4 04 00 00 	mov	dword ptr [esi + 1236], edi
  40134b:	c7 06 d8 81 40 00 	mov	dword ptr [esi], 4227544
  401351:	8b c6 	mov	eax, esi
  401353:	5f 	pop	edi
  401354:	5e 	pop	esi
  401355:	64 89 0d 00 00 00 00 	mov	dword ptr fs:[0], ecx
  40135c:	c9 	leave
  40135d:	c3 	ret
  40135e:	56 	push	esi
  40135f:	8b f1 	mov	esi, ecx
  401361:	e8 14 00 00 00 	call	20 <.text+0x37A>
  401366:	f6 44 24 08 01 	test	byte ptr [esp + 8], 1
  40136b:	74 07 	je	7 <.text+0x374>
  40136d:	56 	push	esi
  40136e:	e8 75 63 00 00 	call	25461 <.text+0x66E8>
  401373:	59 	pop	ecx
  401374:	8b c6 	mov	eax, esi
  401376:	5e 	pop	esi
  401377:	c2 04 00 	ret	4
  40137a:	b8 91 79 40 00 	mov	eax, 4225425
  40137f:	e8 44 63 00 00 	call	25412 <.text+0x66C8>
  401384:	51 	push	ecx
  401385:	56 	push	esi
  401386:	8b f1 	mov	esi, ecx
  401388:	89 75 f0 	mov	dword ptr [ebp - 16], esi
  40138b:	c7 06 d8 81 40 00 	mov	dword ptr [esi], 4227544
  401391:	c7 45 fc 02 00 00 00 	mov	dword ptr [ebp - 4], 2
  401398:	e8 31 00 00 00 	call	49 <.text+0x3CE>
  40139d:	8d 4e 54 	lea	ecx, [esi + 84]
  4013a0:	c6 45 fc 01 	mov	byte ptr [ebp - 4], 1
  4013a4:	e8 c6 16 00 00 	call	5830 <.text+0x1A6F>
  4013a9:	80 65 fc 00 	and	byte ptr [ebp - 4], 0
  4013ad:	8d 4e 2c 	lea	ecx, [esi + 44]
  4013b0:	e8 66 04 00 00 	call	1126 <.text+0x81B>
  4013b5:	83 4d fc ff 	or	dword ptr [ebp - 4], -1
  4013b9:	8d 4e 04 	lea	ecx, [esi + 4]
  4013bc:	e8 5a 04 00 00 	call	1114 <.text+0x81B>
  4013c1:	8b 4d f4 	mov	ecx, dword ptr [ebp - 12]
  4013c4:	5e 	pop	esi
  4013c5:	64 89 0d 00 00 00 00 	mov	dword ptr fs:[0], ecx
  4013cc:	c9 	leave
  4013cd:	c3 	ret
  4013ce:	53 	push	ebx
  4013cf:	56 	push	esi
  4013d0:	8b f1 	mov	esi, ecx
  4013d2:	57 	push	edi
  4013d3:	8d 4e 04 	lea	ecx, [esi + 4]
  4013d6:	e8 de 04 00 00 	call	1246 <.text+0x8B9>
  4013db:	8d 4e 2c 	lea	ecx, [esi + 44]
  4013de:	e8 d6 04 00 00 	call	1238 <.text+0x8B9>
  4013e3:	8b 86 c8 04 00 00 	mov	eax, dword ptr [esi + 1224]
  4013e9:	8b 1d e8 80 40 00 	mov	ebx, dword ptr [4227304]
  4013ef:	85 c0 	test	eax, eax
  4013f1:	bf 00 00 10 00 	mov	edi, 1048576
  4013f6:	74 18 	je	24 <.text+0x410>
  4013f8:	8b cf 	mov	ecx, edi
  4013fa:	c6 00 00 	mov	byte ptr [eax], 0
  4013fd:	40 	inc	eax
  4013fe:	49 	dec	ecx
  4013ff:	75 f9 	jne	-7 <.text+0x3FA>
  401401:	ff b6 c8 04 00 00 	push	dword ptr [esi + 1224]
  401407:	ff d3 	call	ebx
  401409:	83 a6 c8 04 00 00 00 	and	dword ptr [esi + 1224], 0
  401410:	8b 86 cc 04 00 00 	mov	eax, dword ptr [esi + 1228]
  401416:	85 c0 	test	eax, eax
  401418:	74 16 	je	22 <.text+0x430>
  40141a:	c6 00 00 	mov	byte ptr [eax], 0
  40141d:	40 	inc	eax
  40141e:	4f 	dec	edi
  40141f:	75 f9 	jne	-7 <.text+0x41A>
  401421:	ff b6 cc 04 00 00 	push	dword ptr [esi + 1228]
  401427:	ff d3 	call	ebx
  401429:	83 a6 cc 04 00 00 00 	and	dword ptr [esi + 1228], 0
  401430:	6a 01 	push	1
  401432:	58 	pop	eax
  401433:	5f 	pop	edi
  401434:	5e 	pop	esi
  401435:	5b 	pop	ebx
  401436:	c3 	ret
  401437:	53 	push	ebx
  401438:	56 	push	esi
  401439:	57 	push	edi
  40143a:	8b f1 	mov	esi, ecx
  40143c:	ff 74 24 10 	push	dword ptr [esp + 16]
  401440:	8d 4e 04 	lea	ecx, [esi + 4]
  401443:	e8 19 04 00 00 	call	1049 <.text+0x861>
  401448:	85 c0 	test	eax, eax
  40144a:	74 39 	je	57 <.text+0x485>
  40144c:	33 ff 	xor	edi, edi
  40144e:	39 7c 24 10 	cmp	dword ptr [esp + 16], edi
  401452:	74 09 	je	9 <.text+0x45D>
  401454:	57 	push	edi
  401455:	8d 4e 2c 	lea	ecx, [esi + 44]
  401458:	e8 04 04 00 00 	call	1028 <.text+0x861>
  40145d:	bb 00 00 10 00 	mov	ebx, 1048576
  401462:	53 	push	ebx
  401463:	57 	push	edi
  401464:	8b 3d dc 80 40 00 	mov	edi, dword ptr [4227292]
  40146a:	ff d7 	call	edi
  40146c:	85 c0 	test	eax, eax
  40146e:	89 86 c8 04 00 00 	mov	dword ptr [esi + 1224], eax
  401474:	74 0f 	je	15 <.text+0x485>
  401476:	53 	push	ebx
  401477:	6a 00 	push	0
  401479:	ff d7 	call	edi
  40147b:	85 c0 	test	eax, eax
  40147d:	89 86 cc 04 00 00 	mov	dword ptr [esi + 1228], eax
  401483:	75 04 	jne	4 <.text+0x489>
  401485:	33 c0 	xor	eax, eax
  401487:	eb 17 	jmp	23 <.text+0x4A0>
  401489:	8b 44 24 14 	mov	eax, dword ptr [esp + 20]
  40148d:	6a 01 	push	1
  40148f:	89 86 d4 04 00 00 	mov	dword ptr [esi + 1236], eax
  401495:	8b 44 24 1c 	mov	eax, dword ptr [esp + 28]
  401499:	89 86 d0 04 00 00 	mov	dword ptr [esi + 1232], eax
  40149f:	58 	pop	eax
  4014a0:	5f 	pop	edi
  4014a1:	5e 	pop	esi
  4014a2:	5b 	pop	ebx
  4014a3:	c2 0c 00 	ret	12
  4014a6:	55 	push	ebp
  4014a7:	8b ec 	mov	ebp, esp
  4014a9:	6a ff 	push	-1
  4014ab:	68 e0 81 40 00 	push	4227552
  4014b0:	68 f4 76 40 00 	push	4224756
  4014b5:	64 a1 00 00 00 00 	mov	eax, dword ptr fs:[0]
  4014bb:	50 	push	eax
  4014bc:	64 89 25 00 00 00 00 	mov	dword ptr fs:[0], esp
  4014c3:	81 ec 3c 02 00 00 	sub	esp, 572
  4014c9:	53 	push	ebx
  4014ca:	56 	push	esi
  4014cb:	57 	push	edi
  4014cc:	8b f1 	mov	esi, ecx
  4014ce:	83 8d b8 fd ff ff ff 	or	dword ptr [ebp - 584], -1
  4014d5:	33 db 	xor	ebx, ebx
  4014d7:	89 5d d4 	mov	dword ptr [ebp - 44], ebx
  4014da:	89 9d bc fd ff ff 	mov	dword ptr [ebp - 580], ebx
  4014e0:	88 9d c4 fd ff ff 	mov	byte ptr [ebp - 572], bl
  4014e6:	33 c0 	xor	eax, eax
  4014e8:	8d bd c5 fd ff ff 	lea	edi, [ebp - 571]
  4014ee:	ab 	stosd	dword ptr es:[edi], eax
  4014ef:	66 ab 	stosw	word ptr es:[edi], ax
  4014f1:	aa 	stosb	byte ptr es:[edi], al
  4014f2:	89 9d c0 fd ff ff 	mov	dword ptr [ebp - 576], ebx
  4014f8:	89 5d e4 	mov	dword ptr [ebp - 28], ebx
  4014fb:	89 5d fc 	mov	dword ptr [ebp - 4], ebx
  4014fe:	53 	push	ebx
  4014ff:	53 	push	ebx
  401500:	6a 03 	push	3
  401502:	53 	push	ebx
  401503:	6a 01 	push	1
  401505:	68 00 00 00 80 	push	2147483648
  40150a:	ff 75 08 	push	dword ptr [ebp + 8]
  40150d:	ff 15 34 80 40 00 	call	dword ptr [4227124]
  401513:	8b f8 	mov	edi, eax
  401515:	89 bd b8 fd ff ff 	mov	dword ptr [ebp - 584], edi
  40151b:	83 ff ff 	cmp	edi, -1
  40151e:	0f 84 ac 01 00 00 	je	428 <.text+0x6D0>
  401524:	8d 45 dc 	lea	eax, [ebp - 36]
  401527:	50 	push	eax
  401528:	57 	push	edi
  401529:	ff 15 30 80 40 00 	call	dword ptr [4227120]
  40152f:	39 5d e0 	cmp	dword ptr [ebp - 32], ebx
  401532:	0f 8f 98 01 00 00 	jg	408 <.text+0x6D0>
  401538:	7c 0d 	jl	13 <.text+0x547>
  40153a:	81 7d dc 00 00 40 06 	cmp	dword ptr [ebp - 36], 104857600
  401541:	0f 87 89 01 00 00 	ja	393 <.text+0x6D0>
  401547:	53 	push	ebx
  401548:	8d 45 e4 	lea	eax, [ebp - 28]
  40154b:	50 	push	eax
  40154c:	6a 08 	push	8
  40154e:	8d 85 c4 fd ff ff 	lea	eax, [ebp - 572]
  401554:	50 	push	eax
  401555:	57 	push	edi
  401556:	ff 15 80 f8 40 00 	call	dword ptr [4257920]
  40155c:	85 c0 	test	eax, eax
  40155e:	0f 84 6c 01 00 00 	je	364 <.text+0x6D0>
  401564:	6a 08 	push	8
  401566:	68 7c eb 40 00 	push	4254588
  40156b:	8d 85 c4 fd ff ff 	lea	eax, [ebp - 572]
  401571:	50 	push	eax
  401572:	e8 77 61 00 00 	call	24951 <.text+0x66EE>
  401577:	83 c4 0c 	add	esp, 12
  40157a:	85 c0 	test	eax, eax
  40157c:	0f 85 4e 01 00 00 	jne	334 <.text+0x6D0>
  401582:	53 	push	ebx
  401583:	8d 45 e4 	lea	eax, [ebp - 28]
  401586:	50 	push	eax
  401587:	6a 04 	push	4
  401589:	8d 85 bc fd ff ff 	lea	eax, [ebp - 580]
  40158f:	50 	push	eax
  401590:	57 	push	edi
  401591:	ff 15 80 f8 40 00 	call	dword ptr [4257920]
  401597:	85 c0 	test	eax, eax
  401599:	0f 84 31 01 00 00 	je	305 <.text+0x6D0>
  40159f:	b8 00 01 00 00 	mov	eax, 256
  4015a4:	39 85 bc fd ff ff 	cmp	dword ptr [ebp - 580], eax
  4015aa:	0f 85 20 01 00 00 	jne	288 <.text+0x6D0>
  4015b0:	53 	push	ebx
  4015b1:	8d 4d e4 	lea	ecx, [ebp - 28]
  4015b4:	51 	push	ecx
  4015b5:	50 	push	eax
  4015b6:	ff b6 c8 04 00 00 	push	dword ptr [esi + 1224]
  4015bc:	57 	push	edi
  4015bd:	ff 15 80 f8 40 00 	call	dword ptr [4257920]
  4015c3:	85 c0 	test	eax, eax
  4015c5:	0f 84 05 01 00 00 	je	261 <.text+0x6D0>
  4015cb:	53 	push	ebx
  4015cc:	8d 45 e4 	lea	eax, [ebp - 28]
  4015cf:	50 	push	eax
  4015d0:	6a 04 	push	4
  4015d2:	8d 85 c0 fd ff ff 	lea	eax, [ebp - 576]
  4015d8:	50 	push	eax
  4015d9:	57 	push	edi
  4015da:	ff 15 80 f8 40 00 	call	dword ptr [4257920]
  4015e0:	85 c0 	test	eax, eax
  4015e2:	0f 84 e8 00 00 00 	je	232 <.text+0x6D0>
  4015e8:	53 	push	ebx
  4015e9:	8d 45 e4 	lea	eax, [ebp - 28]
  4015ec:	50 	push	eax
  4015ed:	6a 08 	push	8
  4015ef:	8d 85 cc fd ff ff 	lea	eax, [ebp - 564]
  4015f5:	50 	push	eax
  4015f6:	57 	push	edi
  4015f7:	ff 15 80 f8 40 00 	call	dword ptr [4257920]
  4015fd:	85 c0 	test	eax, eax
  4015ff:	0f 84 cb 00 00 00 	je	203 <.text+0x6D0>
  401605:	39 9d d0 fd ff ff 	cmp	dword ptr [ebp - 560], ebx
  40160b:	0f 8f bf 00 00 00 	jg	191 <.text+0x6D0>
  401611:	7c 10 	jl	16 <.text+0x623>
  401613:	81 bd cc fd ff ff 00 00 40 06 	cmp	dword ptr [ebp - 564], 104857600
  40161d:	0f 87 ad 00 00 00 	ja	173 <.text+0x6D0>
  401623:	8d 45 d4 	lea	eax, [ebp - 44]
  401626:	50 	push	eax
  401627:	8d 85 d4 fd ff ff 	lea	eax, [ebp - 556]
  40162d:	50 	push	eax
  40162e:	ff b5 bc fd ff ff 	push	dword ptr [ebp - 580]
  401634:	ff b6 c8 04 00 00 	push	dword ptr [esi + 1224]
  40163a:	8d 4e 04 	lea	ecx, [esi + 4]
  40163d:	e8 9f 03 00 00 	call	927 <.text+0x9E1>
  401642:	85 c0 	test	eax, eax
  401644:	0f 84 86 00 00 00 	je	134 <.text+0x6D0>
  40164a:	8d 7e 54 	lea	edi, [esi + 84]
  40164d:	6a 10 	push	16
  40164f:	ff 75 d4 	push	dword ptr [ebp - 44]
  401652:	ff 35 78 f5 40 00 	push	dword ptr [4257144]
  401658:	8d 85 d4 fd ff ff 	lea	eax, [ebp - 556]
  40165e:	50 	push	eax
  40165f:	8b cf 	mov	ecx, edi
  401661:	e8 10 14 00 00 	call	5136 <.text+0x1A76>
  401666:	ff b5 cc fd ff ff 	push	dword ptr [ebp - 564]
  40166c:	53 	push	ebx
  40166d:	ff 15 dc 80 40 00 	call	dword ptr [4227292]
  401673:	89 45 d8 	mov	dword ptr [ebp - 40], eax
  401676:	3b c3 	cmp	eax, ebx
  401678:	74 56 	je	86 <.text+0x6D0>
  40167a:	53 	push	ebx
  40167b:	8d 45 e4 	lea	eax, [ebp - 28]
  40167e:	50 	push	eax
  40167f:	ff 75 dc 	push	dword ptr [ebp - 36]
  401682:	ff b6 c8 04 00 00 	push	dword ptr [esi + 1224]
  401688:	ff b5 b8 fd ff ff 	push	dword ptr [ebp - 584]
  40168e:	ff 15 80 f8 40 00 	call	dword ptr [4257920]
  401694:	85 c0 	test	eax, eax
  401696:	74 38 	je	56 <.text+0x6D0>
  401698:	8b 45 e4 	mov	eax, dword ptr [ebp - 28]
  40169b:	3b c3 	cmp	eax, ebx
  40169d:	74 31 	je	49 <.text+0x6D0>
  40169f:	3b 9d d0 fd ff ff 	cmp	ebx, dword ptr [ebp - 560]
  4016a5:	7f 0a 	jg	10 <.text+0x6B1>
  4016a7:	7c 27 	jl	39 <.text+0x6D0>
  4016a9:	3b 85 cc fd ff ff 	cmp	eax, dword ptr [ebp - 564]
  4016af:	72 1f 	jb	31 <.text+0x6D0>
  4016b1:	6a 01 	push	1
  4016b3:	50 	push	eax
  4016b4:	8b 5d d8 	mov	ebx, dword ptr [ebp - 40]
  4016b7:	53 	push	ebx
  4016b8:	ff b6 c8 04 00 00 	push	dword ptr [esi + 1224]
  4016be:	8b cf 	mov	ecx, edi
  4016c0:	e8 b2 23 00 00 	call	9138 <.text+0x2A77>
  4016c5:	8b 45 0c 	mov	eax, dword ptr [ebp + 12]
  4016c8:	8b 8d cc fd ff ff 	mov	ecx, dword ptr [ebp - 564]
  4016ce:	89 08 	mov	dword ptr [eax], ecx
  4016d0:	6a ff 	push	-1
  4016d2:	8d 45 f0 	lea	eax, [ebp - 16]
  4016d5:	50 	push	eax
  4016d6:	e8 1f 60 00 00 	call	24607 <.text+0x66FA>
  4016db:	59 	pop	ecx
  4016dc:	59 	pop	ecx
  4016dd:	8b c3 	mov	eax, ebx
  4016df:	eb 18 	jmp	24 <.text+0x6F9>
  4016e1:	83 bd b8 fd ff ff ff 	cmp	dword ptr [ebp - 584], -1
  4016e8:	74 0c 	je	12 <.text+0x6F6>
  4016ea:	ff b5 b8 fd ff ff 	push	dword ptr [ebp - 584]
  4016f0:	ff 15 90 f8 40 00 	call	dword ptr [4257936]
  4016f6:	c3 	ret
  4016f7:	33 c0 	xor	eax, eax
  4016f9:	8b 4d f0 	mov	ecx, dword ptr [ebp - 16]
  4016fc:	64 89 0d 00 00 00 00 	mov	dword ptr fs:[0], ecx
  401703:	5f 	pop	edi
  401704:	5e 	pop	esi
  401705:	5b 	pop	ebx
  401706:	c9 	leave
  401707:	c2 08 00 	ret	8
  40170a:	53 	push	ebx
  40170b:	57 	push	edi
  40170c:	e8 34 03 00 00 	call	820 <.text+0xA45>
  401711:	85 c0 	test	eax, eax
  401713:	0f 84 bf 00 00 00 	je	191 <.text+0x7D8>
  401719:	33 db 	xor	ebx, ebx
  40171b:	39 1d 78 f8 40 00 	cmp	dword ptr [4257912], ebx
  401721:	0f 85 ac 00 00 00 	jne	172 <.text+0x7D3>
  401727:	68 e8 eb 40 00 	push	4254696
  40172c:	ff 15 e0 80 40 00 	call	dword ptr [4227296]
  401732:	8b f8 	mov	edi, eax
  401734:	3b fb 	cmp	edi, ebx
  401736:	0f 84 9c 00 00 00 	je	156 <.text+0x7D8>
  40173c:	56 	push	esi
  40173d:	8b 35 e4 80 40 00 	mov	esi, dword ptr [4227300]
  401743:	68 dc eb 40 00 	push	4254684
  401748:	57 	push	edi
  401749:	ff d6 	call	esi
  40174b:	68 d0 eb 40 00 	push	4254672
  401750:	57 	push	edi
  401751:	a3 78 f8 40 00 	mov	dword ptr [4257912], eax
  401756:	ff d6 	call	esi
  401758:	68 c4 eb 40 00 	push	4254660
  40175d:	57 	push	edi
  40175e:	a3 7c f8 40 00 	mov	dword ptr [4257916], eax
  401763:	ff d6 	call	esi
  401765:	68 b8 eb 40 00 	push	4254648
  40176a:	57 	push	edi
  40176b:	a3 80 f8 40 00 	mov	dword ptr [4257920], eax
  401770:	ff d6 	call	esi
  401772:	68 ac eb 40 00 	push	4254636
  401777:	57 	push	edi
  401778:	a3 84 f8 40 00 	mov	dword ptr [4257924], eax
  40177d:	ff d6 	call	esi
  40177f:	68 a0 eb 40 00 	push	4254624
  401784:	57 	push	edi
  401785:	a3 88 f8 40 00 	mov	dword ptr [4257928], eax
  40178a:	ff d6 	call	esi
  40178c:	68 94 eb 40 00 	push	4254612
  401791:	57 	push	edi
  401792:	a3 8c f8 40 00 	mov	dword ptr [4257932], eax
  401797:	ff d6 	call	esi
  401799:	39 1d 78 f8 40 00 	cmp	dword ptr [4257912], ebx
  40179f:	a3 90 f8 40 00 	mov	dword ptr [4257936], eax
  4017a4:	5e 	pop	esi
  4017a5:	74 31 	je	49 <.text+0x7D8>
  4017a7:	39 1d 7c f8 40 00 	cmp	dword ptr [4257916], ebx
  4017ad:	74 29 	je	41 <.text+0x7D8>
  4017af:	39 1d 80 f8 40 00 	cmp	dword ptr [4257920], ebx
  4017b5:	74 21 	je	33 <.text+0x7D8>
  4017b7:	39 1d 84 f8 40 00 	cmp	dword ptr [4257924], ebx
  4017bd:	74 19 	je	25 <.text+0x7D8>
  4017bf:	39 1d 88 f8 40 00 	cmp	dword ptr [4257928], ebx
  4017c5:	74 11 	je	17 <.text+0x7D8>
  4017c7:	39 1d 8c f8 40 00 	cmp	dword ptr [4257932], ebx
  4017cd:	74 09 	je	9 <.text+0x7D8>
  4017cf:	3b c3 	cmp	eax, ebx
  4017d1:	74 05 	je	5 <.text+0x7D8>
  4017d3:	6a 01 	push	1
  4017d5:	58 	pop	eax
  4017d6:	eb 02 	jmp	2 <.text+0x7DA>
  4017d8:	33 c0 	xor	eax, eax
  4017da:	5f 	pop	edi
  4017db:	5b 	pop	ebx
  4017dc:	c3 	ret
  4017dd:	56 	push	esi
  4017de:	8b f1 	mov	esi, ecx
  4017e0:	33 c0 	xor	eax, eax
  4017e2:	89 46 04 	mov	dword ptr [esi + 4], eax
  4017e5:	89 46 08 	mov	dword ptr [esi + 8], eax
  4017e8:	89 46 0c 	mov	dword ptr [esi + 12], eax
  4017eb:	8d 46 10 	lea	eax, [esi + 16]
  4017ee:	50 	push	eax
  4017ef:	c7 06 ec 81 40 00 	mov	dword ptr [esi], 4227564
  4017f5:	ff 15 38 80 40 00 	call	dword ptr [4227128]
  4017fb:	8b c6 	mov	eax, esi
  4017fd:	5e 	pop	esi
  4017fe:	c3 	ret
  4017ff:	56 	push	esi
  401800:	8b f1 	mov	esi, ecx
  401802:	e8 14 00 00 00 	call	20 <.text+0x81B>
  401807:	f6 44 24 08 01 	test	byte ptr [esp + 8], 1
  40180c:	74 07 	je	7 <.text+0x815>
  40180e:	56 	push	esi
  40180f:	e8 d4 5e 00 00 	call	24276 <.text+0x66E8>
  401814:	59 	pop	ecx
  401815:	8b c6 	mov	eax, esi
  401817:	5e 	pop	esi
  401818:	c2 04 00 	ret	4
  40181b:	c7 01 ec 81 40 00 	mov	dword ptr [ecx], 4227564
  401821:	83 c1 10 	add	ecx, 16
  401824:	51 	push	ecx
  401825:	ff 15 3c 80 40 00 	call	dword ptr [4227132]
  40182b:	c3 	ret
  40182c:	56 	push	esi
  40182d:	57 	push	edi
  40182e:	33 ff 	xor	edi, edi
  401830:	8d 71 04 	lea	esi, [ecx + 4]
  401833:	8b c7 	mov	eax, edi
  401835:	68 00 00 00 f0 	push	4026531840
  40183a:	f7 d8 	neg	eax
  40183c:	1b c0 	sbb	eax, eax
  40183e:	6a 18 	push	24
  401840:	25 8c f0 40 00 	and	eax, 4255884
  401845:	50 	push	eax
  401846:	6a 00 	push	0
  401848:	56 	push	esi
  401849:	ff 15 94 f8 40 00 	call	dword ptr [4257940]
  40184f:	85 c0 	test	eax, eax
  401851:	75 09 	jne	9 <.text+0x85C>
  401853:	47 	inc	edi
  401854:	83 ff 02 	cmp	edi, 2
  401857:	7c da 	jl	-38 <.text+0x833>
  401859:	5f 	pop	edi
  40185a:	5e 	pop	esi
  40185b:	c3 	ret
  40185c:	6a 01 	push	1
  40185e:	58 	pop	eax
  40185f:	eb f8 	jmp	-8 <.text+0x859>
  401861:	56 	push	esi
  401862:	8b f1 	mov	esi, ecx
  401864:	e8 c3 ff ff ff 	call	-61 <.text+0x82C>
  401869:	85 c0 	test	eax, eax
  40186b:	74 3a 	je	58 <.text+0x8A7>
  40186d:	33 c0 	xor	eax, eax
  40186f:	39 44 24 08 	cmp	dword ptr [esp + 8], eax
  401873:	75 1b 	jne	27 <.text+0x890>
  401875:	8d 4e 08 	lea	ecx, [esi + 8]
  401878:	51 	push	ecx
  401879:	50 	push	eax
  40187a:	50 	push	eax
  40187b:	68 94 04 00 00 	push	1172
  401880:	68 f8 eb 40 00 	push	4254712
  401885:	ff 76 04 	push	dword ptr [esi + 4]
  401888:	ff 15 98 f8 40 00 	call	dword ptr [4257944]
  40188e:	eb 13 	jmp	19 <.text+0x8A3>
  401890:	ff 74 24 08 	push	dword ptr [esp + 8]
  401894:	8d 46 08 	lea	eax, [esi + 8]
  401897:	50 	push	eax
  401898:	ff 76 04 	push	dword ptr [esi + 4]
  40189b:	e8 59 00 00 00 	call	89 <.text+0x8F9>
  4018a0:	83 c4 0c 	add	esp, 12
  4018a3:	85 c0 	test	eax, eax
  4018a5:	75 0b 	jne	11 <.text+0x8B2>
  4018a7:	8b ce 	mov	ecx, esi
  4018a9:	e8 0b 00 00 00 	call	11 <.text+0x8B9>
  4018ae:	33 c0 	xor	eax, eax
  4018b0:	eb 03 	jmp	3 <.text+0x8B5>
  4018b2:	6a 01 	push	1
  4018b4:	58 	pop	eax
  4018b5:	5e 	pop	esi
  4018b6:	c2 04 00 	ret	4
  4018b9:	56 	push	esi
  4018ba:	8b f1 	mov	esi, ecx
  4018bc:	8b 46 08 	mov	eax, dword ptr [esi + 8]
  4018bf:	85 c0 	test	eax, eax
  4018c1:	74 0b 	je	11 <.text+0x8CE>
  4018c3:	50 	push	eax
  4018c4:	ff 15 9c f8 40 00 	call	dword ptr [4257948]
  4018ca:	83 66 08 00 	and	dword ptr [esi + 8], 0
  4018ce:	8b 46 0c 	mov	eax, dword ptr [esi + 12]
  4018d1:	85 c0 	test	eax, eax
  4018d3:	74 0b 	je	11 <.text+0x8E0>
  4018d5:	50 	push	eax
  4018d6:	ff 15 9c f8 40 00 	call	dword ptr [4257948]
  4018dc:	83 66 0c 00 	and	dword ptr [esi + 12], 0
  4018e0:	8b 46 04 	mov	eax, dword ptr [esi + 4]
  4018e3:	85 c0 	test	eax, eax
  4018e5:	74 0d 	je	13 <.text+0x8F4>
  4018e7:	6a 00 	push	0
  4018e9:	50 	push	eax
  4018ea:	ff 15 10 80 40 00 	call	dword ptr [4227088]
  4018f0:	83 66 04 00 	and	dword ptr [esi + 4], 0
  4018f4:	6a 01 	push	1
  4018f6:	58 	pop	eax
  4018f7:	5e 	pop	esi
  4018f8:	c3 	ret
  4018f9:	55 	push	ebp
  4018fa:	8b ec 	mov	ebp, esp
  4018fc:	6a ff 	push	-1
  4018fe:	68 f0 81 40 00 	push	4227568
  401903:	68 f4 76 40 00 	push	4224756
  401908:	64 a1 00 00 00 00 	mov	eax, dword ptr fs:[0]
  40190e:	50 	push	eax
  40190f:	64 89 25 00 00 00 00 	mov	dword ptr fs:[0], esp
  401916:	83 ec 18 	sub	esp, 24
  401919:	53 	push	ebx
  40191a:	56 	push	esi
  40191b:	57 	push	edi
  40191c:	83 4d d8 ff 	or	dword ptr [ebp - 40], -1
  401920:	33 f6 	xor	esi, esi
  401922:	89 75 e4 	mov	dword ptr [ebp - 28], esi
  401925:	89 75 e0 	mov	dword ptr [ebp - 32], esi
  401928:	89 75 fc 	mov	dword ptr [ebp - 4], esi
  40192b:	56 	push	esi
  40192c:	56 	push	esi
  40192d:	6a 03 	push	3
  40192f:	56 	push	esi
  401930:	6a 01 	push	1
  401932:	68 00 00 00 80 	push	2147483648
  401937:	ff 75 10 	push	dword ptr [ebp + 16]
  40193a:	ff 15 34 80 40 00 	call	dword ptr [4227124]
  401940:	89 45 d8 	mov	dword ptr [ebp - 40], eax
  401943:	83 f8 ff 	cmp	eax, -1
  401946:	74 58 	je	88 <.text+0x9A0>
  401948:	56 	push	esi
  401949:	50 	push	eax
  40194a:	ff 15 44 80 40 00 	call	dword ptr [4227140]
  401950:	8b f8 	mov	edi, eax
  401952:	89 7d dc 	mov	dword ptr [ebp - 36], edi
  401955:	83 ff ff 	cmp	edi, -1
  401958:	74 46 	je	70 <.text+0x9A0>
  40195a:	81 ff 00 90 01 00 	cmp	edi, 102400
  401960:	77 3e 	ja	62 <.text+0x9A0>
  401962:	57 	push	edi
  401963:	56 	push	esi
  401964:	ff 15 dc 80 40 00 	call	dword ptr [4227292]
  40196a:	8b d8 	mov	ebx, eax
  40196c:	89 5d e0 	mov	dword ptr [ebp - 32], ebx
  40196f:	3b de 	cmp	ebx, esi
  401971:	74 2d 	je	45 <.text+0x9A0>
  401973:	56 	push	esi
  401974:	8d 45 e4 	lea	eax, [ebp - 28]
  401977:	50 	push	eax
  401978:	57 	push	edi
  401979:	53 	push	ebx
  40197a:	ff 75 d8 	push	dword ptr [ebp - 40]
  40197d:	ff 15 40 80 40 00 	call	dword ptr [4227136]
  401983:	85 c0 	test	eax, eax
  401985:	74 19 	je	25 <.text+0x9A0>
  401987:	ff 75 0c 	push	dword ptr [ebp + 12]
  40198a:	56 	push	esi
  40198b:	56 	push	esi
  40198c:	ff 75 e4 	push	dword ptr [ebp - 28]
  40198f:	53 	push	ebx
  401990:	ff 75 08 	push	dword ptr [ebp + 8]
  401993:	ff 15 98 f8 40 00 	call	dword ptr [4257944]
  401999:	85 c0 	test	eax, eax
  40199b:	74 03 	je	3 <.text+0x9A0>
  40199d:	6a 01 	push	1
  40199f:	5e 	pop	esi
  4019a0:	6a ff 	push	-1
  4019a2:	8d 45 f0 	lea	eax, [ebp - 16]
  4019a5:	50 	push	eax
  4019a6:	e8 4f 5d 00 00 	call	23887 <.text+0x66FA>
  4019ab:	59 	pop	ecx
  4019ac:	59 	pop	ecx
  4019ad:	8b c6 	mov	eax, esi
  4019af:	eb 21 	jmp	33 <.text+0x9D2>
  4019b1:	83 7d e0 00 	cmp	dword ptr [ebp - 32], 0
  4019b5:	74 09 	je	9 <.text+0x9C0>
  4019b7:	ff 75 e0 	push	dword ptr [ebp - 32]
  4019ba:	ff 15 e8 80 40 00 	call	dword ptr [4227304]
  4019c0:	83 7d d8 ff 	cmp	dword ptr [ebp - 40], -1
  4019c4:	74 09 	je	9 <.text+0x9CF>
  4019c6:	ff 75 d8 	push	dword ptr [ebp - 40]
  4019c9:	ff 15 f0 80 40 00 	call	dword ptr [4227312]
  4019cf:	c3 	ret
  4019d0:	33 c0 	xor	eax, eax
  4019d2:	8b 4d f0 	mov	ecx, dword ptr [ebp - 16]
  4019d5:	64 89 0d 00 00 00 00 	mov	dword ptr fs:[0], ecx
  4019dc:	5f 	pop	edi
  4019dd:	5e 	pop	esi
  4019de:	5b 	pop	ebx
  4019df:	c9 	leave
  4019e0:	c3 	ret
  4019e1:	55 	push	ebp
  4019e2:	8b ec 	mov	ebp, esp
  4019e4:	56 	push	esi
  4019e5:	8b f1 	mov	esi, ecx
  4019e7:	57 	push	edi
  4019e8:	83 7e 08 00 	cmp	dword ptr [esi + 8], 0
  4019ec:	74 2b 	je	43 <.text+0xA19>
  4019ee:	8d 7e 10 	lea	edi, [esi + 16]
  4019f1:	57 	push	edi
  4019f2:	ff 15 50 80 40 00 	call	dword ptr [4227152]
  4019f8:	8d 45 0c 	lea	eax, [ebp + 12]
  4019fb:	50 	push	eax
  4019fc:	ff 75 08 	push	dword ptr [ebp + 8]
  4019ff:	6a 00 	push	0
  401a01:	6a 01 	push	1
  401a03:	6a 00 	push	0
  401a05:	ff 76 08 	push	dword ptr [esi + 8]
  401a08:	ff 15 a4 f8 40 00 	call	dword ptr [4257956]
  401a0e:	85 c0 	test	eax, eax
  401a10:	57 	push	edi
  401a11:	75 0a 	jne	10 <.text+0xA1D>
  401a13:	ff 15 4c 80 40 00 	call	dword ptr [4227148]
  401a19:	33 c0 	xor	eax, eax
  401a1b:	eb 22 	jmp	34 <.text+0xA3F>
  401a1d:	ff 15 4c 80 40 00 	call	dword ptr [4227148]
  401a23:	ff 75 0c 	push	dword ptr [ebp + 12]
  401a26:	ff 75 08 	push	dword ptr [ebp + 8]
  401a29:	ff 75 10 	push	dword ptr [ebp + 16]
  401a2c:	e8 d5 5c 00 00 	call	23765 <.text+0x6706>
  401a31:	8b 45 14 	mov	eax, dword ptr [ebp + 20]
  401a34:	8b 4d 0c 	mov	ecx, dword ptr [ebp + 12]
  401a37:	83 c4 0c 	add	esp, 12
  401a3a:	89 08 	mov	dword ptr [eax], ecx
  401a3c:	6a 01 	push	1
  401a3e:	58 	pop	eax
  401a3f:	5f 	pop	edi
  401a40:	5e 	pop	esi
  401a41:	5d 	pop	ebp
  401a42:	c2 10 00 	ret	16
  401a45:	53 	push	ebx
  401a46:	33 db 	xor	ebx, ebx
  401a48:	39 1d 94 f8 40 00 	cmp	dword ptr [4257940], ebx
  401a4e:	57 	push	edi
  401a4f:	0f 85 97 00 00 00 	jne	151 <.text+0xAEC>
  401a55:	68 20 e0 40 00 	push	4251680
  401a5a:	ff 15 e0 80 40 00 	call	dword ptr [4227296]
  401a60:	8b f8 	mov	edi, eax
  401a62:	3b fb 	cmp	edi, ebx
  401a64:	0f 84 87 00 00 00 	je	135 <.text+0xAF1>
  401a6a:	56 	push	esi
  401a6b:	8b 35 e4 80 40 00 	mov	esi, dword ptr [4227300]
  401a71:	68 10 f1 40 00 	push	4256016
  401a76:	57 	push	edi
  401a77:	ff d6 	call	esi
  401a79:	68 00 f1 40 00 	push	4256000
  401a7e:	57 	push	edi
  401a7f:	a3 94 f8 40 00 	mov	dword ptr [4257940], eax
  401a84:	ff d6 	call	esi
  401a86:	68 f0 f0 40 00 	push	4255984
  401a8b:	57 	push	edi
  401a8c:	a3 98 f8 40 00 	mov	dword ptr [4257944], eax
  401a91:	ff d6 	call	esi
  401a93:	68 e0 f0 40 00 	push	4255968
  401a98:	57 	push	edi
  401a99:	a3 9c f8 40 00 	mov	dword ptr [4257948], eax
  401a9e:	ff d6 	call	esi
  401aa0:	68 d0 f0 40 00 	push	4255952
  401aa5:	57 	push	edi
  401aa6:	a3 a0 f8 40 00 	mov	dword ptr [4257952], eax
  401aab:	ff d6 	call	esi
  401aad:	68 c4 f0 40 00 	push	4255940
  401ab2:	57 	push	edi
  401ab3:	a3 a4 f8 40 00 	mov	dword ptr [4257956], eax
  401ab8:	ff d6 	call	esi
  401aba:	39 1d 94 f8 40 00 	cmp	dword ptr [4257940], ebx
  401ac0:	a3 a8 f8 40 00 	mov	dword ptr [4257960], eax
  401ac5:	5e 	pop	esi
  401ac6:	74 29 	je	41 <.text+0xAF1>
  401ac8:	39 1d 98 f8 40 00 	cmp	dword ptr [4257944], ebx
  401ace:	74 21 	je	33 <.text+0xAF1>
  401ad0:	39 1d 9c f8 40 00 	cmp	dword ptr [4257948], ebx
  401ad6:	74 19 	je	25 <.text+0xAF1>
  401ad8:	39 1d a0 f8 40 00 	cmp	dword ptr [4257952], ebx
  401ade:	74 11 	je	17 <.text+0xAF1>
  401ae0:	39 1d a4 f8 40 00 	cmp	dword ptr [4257956], ebx
  401ae6:	74 09 	je	9 <.text+0xAF1>
  401ae8:	3b c3 	cmp	eax, ebx
  401aea:	74 05 	je	5 <.text+0xAF1>
  401aec:	6a 01 	push	1
  401aee:	58 	pop	eax
  401aef:	eb 02 	jmp	2 <.text+0xAF3>
  401af1:	33 c0 	xor	eax, eax
  401af3:	5f 	pop	edi
  401af4:	5b 	pop	ebx
  401af5:	c3 	ret
  401af6:	55 	push	ebp
  401af7:	8b ec 	mov	ebp, esp
  401af9:	53 	push	ebx
  401afa:	56 	push	esi
  401afb:	8b 35 5c 80 40 00 	mov	esi, dword ptr [4227164]
  401b01:	57 	push	edi
  401b02:	6a 00 	push	0
  401b04:	ff 75 08 	push	dword ptr [ebp + 8]
  401b07:	ff d6 	call	esi
  401b09:	ff 75 08 	push	dword ptr [ebp + 8]
  401b0c:	8b 3d 58 80 40 00 	mov	edi, dword ptr [4227160]
  401b12:	ff d7 	call	edi
  401b14:	85 c0 	test	eax, eax
  401b16:	74 0f 	je	15 <.text+0xB27>
  401b18:	8b 5d 0c 	mov	ebx, dword ptr [ebp + 12]
  401b1b:	6a 00 	push	0
  401b1d:	53 	push	ebx
  401b1e:	ff d6 	call	esi
  401b20:	53 	push	ebx
  401b21:	ff d7 	call	edi
  401b23:	85 c0 	test	eax, eax
  401b25:	75 04 	jne	4 <.text+0xB2B>
  401b27:	33 c0 	xor	eax, eax
  401b29:	eb 2f 	jmp	47 <.text+0xB5A>
  401b2b:	53 	push	ebx
  401b2c:	ff 15 2c 80 40 00 	call	dword ptr [4227116]
  401b32:	0c 06 	or	al, 6
  401b34:	50 	push	eax
  401b35:	53 	push	ebx
  401b36:	ff 15 54 80 40 00 	call	dword ptr [4227156]
  401b3c:	83 7d 10 00 	cmp	dword ptr [ebp + 16], 0
  401b40:	74 15 	je	21 <.text+0xB57>
  401b42:	53 	push	ebx
  401b43:	ff 75 08 	push	dword ptr [ebp + 8]
  401b46:	68 88 eb 40 00 	push	4254600
  401b4b:	ff 75 10 	push	dword ptr [ebp + 16]
  401b4e:	ff 15 54 81 40 00 	call	dword ptr [4227412]
  401b54:	83 c4 10 	add	esp, 16
  401b57:	6a 01 	push	1
  401b59:	58 	pop	eax
  401b5a:	5f 	pop	edi
  401b5b:	5e 	pop	esi
  401b5c:	5b 	pop	ebx
  401b5d:	5d 	pop	ebp
  401b5e:	c3 	ret
  401b5f:	55 	push	ebp
  401b60:	8b ec 	mov	ebp, esp
  401b62:	81 ec d8 04 00 00 	sub	esp, 1240
  401b68:	66 8b 15 74 f8 40 00 	mov	dx, word ptr [4257908]
  401b6f:	56 	push	esi
  401b70:	be 81 00 00 00 	mov	esi, 129
  401b75:	57 	push	edi
  401b76:	8b ce 	mov	ecx, esi
  401b78:	33 c0 	xor	eax, eax
  401b7a:	8d bd 2a fb ff ff 	lea	edi, [ebp - 1238]
  401b80:	66 89 95 28 fb ff ff 	mov	word ptr [ebp - 1240], dx
  401b87:	f3 	rep
  401b88:	ab 	stosd	dword ptr es:[edi], eax
  401b89:	66 ab 	stosw	word ptr es:[edi], ax
  401b8b:	8b ce 	mov	ecx, esi
  401b8d:	33 c0 	xor	eax, eax
  401b8f:	8d bd 32 fd ff ff 	lea	edi, [ebp - 718]
  401b95:	66 89 95 30 fd ff ff 	mov	word ptr [ebp - 720], dx
  401b9c:	f3 	rep
  401b9d:	ab 	stosd	dword ptr es:[edi], eax
  401b9e:	66 ab 	stosw	word ptr es:[edi], ax
  401ba0:	6a 31 	push	49
  401ba2:	33 c0 	xor	eax, eax
  401ba4:	59 	pop	ecx
  401ba5:	8d bd 3a ff ff ff 	lea	edi, [ebp - 198]
  401bab:	66 89 95 38 ff ff ff 	mov	word ptr [ebp - 200], dx
  401bb2:	6a 63 	push	99
  401bb4:	f3 	rep
  401bb5:	ab 	stosd	dword ptr es:[edi], eax
  401bb6:	66 ab 	stosw	word ptr es:[edi], ax
  401bb8:	8d 85 38 ff ff ff 	lea	eax, [ebp - 200]
  401bbe:	50 	push	eax
  401bbf:	6a ff 	push	-1
  401bc1:	68 ac f8 40 00 	push	4257964
  401bc6:	6a 00 	push	0
  401bc8:	6a 00 	push	0
  401bca:	ff 15 78 80 40 00 	call	dword ptr [4227192]
  401bd0:	be 04 01 00 00 	mov	esi, 260
  401bd5:	8d 85 28 fb ff ff 	lea	eax, [ebp - 1240]
  401bdb:	56 	push	esi
  401bdc:	50 	push	eax
  401bdd:	ff 15 64 80 40 00 	call	dword ptr [4227172]
  401be3:	8b 3d 54 81 40 00 	mov	edi, dword ptr [4227412]
  401be9:	66 83 a5 2c fb ff ff 00 	and	word ptr [ebp - 1236], 0
  401bf1:	8d 85 28 fb ff ff 	lea	eax, [ebp - 1240]
  401bf7:	50 	push	eax
  401bf8:	8d 85 30 fd ff ff 	lea	eax, [ebp - 720]
  401bfe:	68 0c f4 40 00 	push	4256780
  401c03:	50 	push	eax
  401c04:	ff d7 	call	edi
  401c06:	83 c4 0c 	add	esp, 12
  401c09:	8d 85 30 fd ff ff 	lea	eax, [ebp - 720]
  401c0f:	50 	push	eax
  401c10:	ff 15 2c 80 40 00 	call	dword ptr [4227116]
  401c16:	83 f8 ff 	cmp	eax, -1
  401c19:	74 25 	je	37 <.text+0xC40>
  401c1b:	ff 75 08 	push	dword ptr [ebp + 8]
  401c1e:	8d 85 38 ff ff ff 	lea	eax, [ebp - 200]
  401c24:	50 	push	eax
  401c25:	8d 85 30 fd ff ff 	lea	eax, [ebp - 720]
  401c2b:	50 	push	eax
  401c2c:	e8 c5 fe ff ff 	call	-315 <.text+0xAF6>
  401c31:	83 c4 0c 	add	esp, 12
  401c34:	85 c0 	test	eax, eax
  401c36:	74 08 	je	8 <.text+0xC40>
  401c38:	6a 01 	push	1
  401c3a:	58 	pop	eax
  401c3b:	e9 a4 00 00 00 	jmp	164 <.text+0xCE4>
  401c40:	8d 85 28 fb ff ff 	lea	eax, [ebp - 1240]
  401c46:	50 	push	eax
  401c47:	8d 85 30 fd ff ff 	lea	eax, [ebp - 720]
  401c4d:	68 f8 f3 40 00 	push	4256760
  401c52:	50 	push	eax
  401c53:	ff d7 	call	edi
  401c55:	ff 75 08 	push	dword ptr [ebp + 8]
  401c58:	8d 85 38 ff ff ff 	lea	eax, [ebp - 200]
  401c5e:	50 	push	eax
  401c5f:	8d 85 30 fd ff ff 	lea	eax, [ebp - 720]
  401c65:	50 	push	eax
  401c66:	e8 8b fe ff ff 	call	-373 <.text+0xAF6>
  401c6b:	83 c4 18 	add	esp, 24
  401c6e:	85 c0 	test	eax, eax
  401c70:	75 c6 	jne	-58 <.text+0xC38>
  401c72:	ff 75 08 	push	dword ptr [ebp + 8]
  401c75:	8d 85 38 ff ff ff 	lea	eax, [ebp - 200]
  401c7b:	50 	push	eax
  401c7c:	8d 85 28 fb ff ff 	lea	eax, [ebp - 1240]
  401c82:	50 	push	eax
  401c83:	e8 6e fe ff ff 	call	-402 <.text+0xAF6>
  401c88:	83 c4 0c 	add	esp, 12
  401c8b:	85 c0 	test	eax, eax
  401c8d:	75 a9 	jne	-87 <.text+0xC38>
  401c8f:	8d 85 30 fd ff ff 	lea	eax, [ebp - 720]
  401c95:	50 	push	eax
  401c96:	56 	push	esi
  401c97:	ff 15 60 80 40 00 	call	dword ptr [4227168]
  401c9d:	8b 35 50 81 40 00 	mov	esi, dword ptr [4227408]
  401ca3:	8d 85 30 fd ff ff 	lea	eax, [ebp - 720]
  401ca9:	6a 5c 	push	92
  401cab:	50 	push	eax
  401cac:	ff d6 	call	esi
  401cae:	59 	pop	ecx
  401caf:	85 c0 	test	eax, eax
  401cb1:	59 	pop	ecx
  401cb2:	74 11 	je	17 <.text+0xCC5>
  401cb4:	8d 85 30 fd ff ff 	lea	eax, [ebp - 720]
  401cba:	6a 5c 	push	92
  401cbc:	50 	push	eax
  401cbd:	ff d6 	call	esi
  401cbf:	66 83 20 00 	and	word ptr [eax], 0
  401cc3:	59 	pop	ecx
  401cc4:	59 	pop	ecx
  401cc5:	ff 75 08 	push	dword ptr [ebp + 8]
  401cc8:	8d 85 38 ff ff ff 	lea	eax, [ebp - 200]
  401cce:	50 	push	eax
  401ccf:	8d 85 30 fd ff ff 	lea	eax, [ebp - 720]
  401cd5:	50 	push	eax
  401cd6:	e8 1b fe ff ff 	call	-485 <.text+0xAF6>
  401cdb:	83 c4 0c 	add	esp, 12
  401cde:	f7 d8 	neg	eax
  401ce0:	1b c0 	sbb	eax, eax
  401ce2:	f7 d8 	neg	eax
  401ce4:	5f 	pop	edi
  401ce5:	5e 	pop	esi
  401ce6:	c9 	leave
  401ce7:	c3 	ret
  401ce8:	55 	push	ebp
  401ce9:	8b ec 	mov	ebp, esp
  401ceb:	81 ec 0c 04 00 00 	sub	esp, 1036
  401cf1:	57 	push	edi
  401cf2:	33 ff 	xor	edi, edi
  401cf4:	68 3f 00 0f 00 	push	983103
  401cf9:	57 	push	edi
  401cfa:	57 	push	edi
  401cfb:	89 7d f8 	mov	dword ptr [ebp - 8], edi
  401cfe:	ff 15 24 80 40 00 	call	dword ptr [4227108]
  401d04:	3b c7 	cmp	eax, edi
  401d06:	89 45 fc 	mov	dword ptr [ebp - 4], eax
  401d09:	75 07 	jne	7 <.text+0xD12>
  401d0b:	33 c0 	xor	eax, eax
  401d0d:	e9 96 00 00 00 	jmp	150 <.text+0xDA8>
  401d12:	53 	push	ebx
  401d13:	56 	push	esi
  401d14:	bb ff 01 0f 00 	mov	ebx, 983551
  401d19:	be ac f8 40 00 	mov	esi, 4257964
  401d1e:	53 	push	ebx
  401d1f:	56 	push	esi
  401d20:	50 	push	eax
  401d21:	ff 15 04 80 40 00 	call	dword ptr [4227076]
  401d27:	3b c7 	cmp	eax, edi
  401d29:	89 45 f4 	mov	dword ptr [ebp - 12], eax
  401d2c:	74 17 	je	23 <.text+0xD45>
  401d2e:	57 	push	edi
  401d2f:	57 	push	edi
  401d30:	50 	push	eax
  401d31:	ff 15 08 80 40 00 	call	dword ptr [4227080]
  401d37:	ff 75 f4 	push	dword ptr [ebp - 12]
  401d3a:	ff 15 0c 80 40 00 	call	dword ptr [4227084]
  401d40:	6a 01 	push	1
  401d42:	5e 	pop	esi
  401d43:	eb 56 	jmp	86 <.text+0xD9B>
  401d45:	ff 75 08 	push	dword ptr [ebp + 8]
  401d48:	8d 85 f4 fb ff ff 	lea	eax, [ebp - 1036]
  401d4e:	68 2c f4 40 00 	push	4256812
  401d53:	50 	push	eax
  401d54:	ff 15 1c 81 40 00 	call	dword ptr [4227356]
  401d5a:	83 c4 0c 	add	esp, 12
  401d5d:	8d 85 f4 fb ff ff 	lea	eax, [ebp - 1036]
  401d63:	57 	push	edi
  401d64:	57 	push	edi
  401d65:	57 	push	edi
  401d66:	57 	push	edi
  401d67:	57 	push	edi
  401d68:	50 	push	eax
  401d69:	6a 01 	push	1
  401d6b:	6a 02 	push	2
  401d6d:	6a 10 	push	16
  401d6f:	53 	push	ebx
  401d70:	56 	push	esi
  401d71:	56 	push	esi
  401d72:	ff 75 fc 	push	dword ptr [ebp - 4]
  401d75:	ff 15 00 80 40 00 	call	dword ptr [4227072]
  401d7b:	8b f0 	mov	esi, eax
  401d7d:	3b f7 	cmp	esi, edi
  401d7f:	74 17 	je	23 <.text+0xD98>
  401d81:	57 	push	edi
  401d82:	57 	push	edi
  401d83:	56 	push	esi
  401d84:	ff 15 08 80 40 00 	call	dword ptr [4227080]
  401d8a:	56 	push	esi
  401d8b:	ff 15 0c 80 40 00 	call	dword ptr [4227084]
  401d91:	c7 45 f8 01 00 00 00 	mov	dword ptr [ebp - 8], 1
  401d98:	8b 75 f8 	mov	esi, dword ptr [ebp - 8]
  401d9b:	ff 75 fc 	push	dword ptr [ebp - 4]
  401d9e:	ff 15 0c 80 40 00 	call	dword ptr [4227084]
  401da4:	8b c6 	mov	eax, esi
  401da6:	5e 	pop	esi
  401da7:	5b 	pop	ebx
  401da8:	5f 	pop	edi
  401da9:	c9 	leave
  401daa:	c3 	ret
  401dab:	55 	push	ebp
  401dac:	8b ec 	mov	ebp, esp
  401dae:	81 ec 2c 01 00 00 	sub	esp, 300
  401db4:	56 	push	esi
  401db5:	57 	push	edi
  401db6:	68 3c f4 40 00 	push	4256828
  401dbb:	68 0a 08 00 00 	push	2058
  401dc0:	ff 75 08 	push	dword ptr [ebp + 8]
  401dc3:	ff 15 00 81 40 00 	call	dword ptr [4227328]
  401dc9:	8b f0 	mov	esi, eax
  401dcb:	85 f6 	test	esi, esi
  401dcd:	74 38 	je	56 <.text+0xE07>
  401dcf:	56 	push	esi
  401dd0:	ff 75 08 	push	dword ptr [ebp + 8]
  401dd3:	ff 15 74 80 40 00 	call	dword ptr [4227188]
  401dd9:	85 c0 	test	eax, eax
  401ddb:	74 2a 	je	42 <.text+0xE07>
  401ddd:	50 	push	eax
  401dde:	ff 15 70 80 40 00 	call	dword ptr [4227184]
  401de4:	8b f8 	mov	edi, eax
  401de6:	85 ff 	test	edi, edi
  401de8:	74 1d 	je	29 <.text+0xE07>
  401dea:	ff 75 0c 	push	dword ptr [ebp + 12]
  401ded:	56 	push	esi
  401dee:	ff 75 08 	push	dword ptr [ebp + 8]
  401df1:	ff 15 6c 80 40 00 	call	dword ptr [4227180]
  401df7:	50 	push	eax
  401df8:	57 	push	edi
  401df9:	e8 af 57 00 00 	call	22447 <.text+0x65AD>
  401dfe:	8b f0 	mov	esi, eax
  401e00:	83 c4 0c 	add	esp, 12
  401e03:	85 f6 	test	esi, esi
  401e05:	75 07 	jne	7 <.text+0xE0E>
  401e07:	33 c0 	xor	eax, eax
  401e09:	e9 8c 00 00 00 	jmp	140 <.text+0xE9A>
  401e0e:	83 a5 d4 fe ff ff 00 	and	dword ptr [ebp - 300], 0
  401e15:	53 	push	ebx
  401e16:	6a 4a 	push	74
  401e18:	33 c0 	xor	eax, eax
  401e1a:	59 	pop	ecx
  401e1b:	8d bd d8 fe ff ff 	lea	edi, [ebp - 296]
  401e21:	f3 	rep
  401e22:	ab 	stosd	dword ptr es:[edi], eax
  401e23:	8d 85 d4 fe ff ff 	lea	eax, [ebp - 300]
  401e29:	50 	push	eax
  401e2a:	6a ff 	push	-1
  401e2c:	56 	push	esi
  401e2d:	e8 92 57 00 00 	call	22418 <.text+0x65C4>
  401e32:	8b 9d d4 fe ff ff 	mov	ebx, dword ptr [ebp - 300]
  401e38:	83 c4 0c 	add	esp, 12
  401e3b:	33 ff 	xor	edi, edi
  401e3d:	85 db 	test	ebx, ebx
  401e3f:	7e 4e 	jle	78 <.text+0xE8F>
  401e41:	8d 85 d4 fe ff ff 	lea	eax, [ebp - 300]
  401e47:	50 	push	eax
  401e48:	57 	push	edi
  401e49:	56 	push	esi
  401e4a:	e8 75 57 00 00 	call	22389 <.text+0x65C4>
  401e4f:	8d 85 d8 fe ff ff 	lea	eax, [ebp - 296]
  401e55:	68 10 e0 40 00 	push	4251664
  401e5a:	50 	push	eax
  401e5b:	e8 e0 58 00 00 	call	22752 <.text+0x6740>
  401e60:	83 c4 14 	add	esp, 20
  401e63:	85 c0 	test	eax, eax
  401e65:	75 12 	jne	18 <.text+0xE79>
  401e67:	8d 85 d8 fe ff ff 	lea	eax, [ebp - 296]
  401e6d:	50 	push	eax
  401e6e:	ff 15 68 80 40 00 	call	dword ptr [4227176]
  401e74:	83 f8 ff 	cmp	eax, -1
  401e77:	75 11 	jne	17 <.text+0xE8A>
  401e79:	8d 85 d8 fe ff ff 	lea	eax, [ebp - 296]
  401e7f:	50 	push	eax
  401e80:	57 	push	edi
  401e81:	56 	push	esi
  401e82:	e8 b6 57 00 00 	call	22454 <.text+0x663D>
  401e87:	83 c4 0c 	add	esp, 12
  401e8a:	47 	inc	edi
  401e8b:	3b fb 	cmp	edi, ebx
  401e8d:	7c b2 	jl	-78 <.text+0xE41>
  401e8f:	56 	push	esi
  401e90:	e8 c1 57 00 00 	call	22465 <.text+0x6656>
  401e95:	59 	pop	ecx
  401e96:	6a 01 	push	1
  401e98:	58 	pop	eax
  401e99:	5b 	pop	ebx
  401e9a:	5f 	pop	edi
  401e9b:	5e 	pop	esi
  401e9c:	c9 	leave
  401e9d:	c3 	ret
  401e9e:	55 	push	ebp
  401e9f:	8b ec 	mov	ebp, esp
  401ea1:	81 ec 18 03 00 00 	sub	esp, 792
  401ea7:	8d 85 e8 fc ff ff 	lea	eax, [ebp - 792]
  401ead:	6a 01 	push	1
  401eaf:	50 	push	eax
  401eb0:	c7 45 f4 88 f4 40 00 	mov	dword ptr [ebp - 12], 4256904
  401eb7:	c7 45 f8 64 f4 40 00 	mov	dword ptr [ebp - 8], 4256868
  401ebe:	c7 45 fc 40 f4 40 00 	mov	dword ptr [ebp - 4], 4256832
  401ec5:	e8 36 f1 ff ff 	call	-3786 <.text>
  401eca:	59 	pop	ecx
  401ecb:	85 c0 	test	eax, eax
  401ecd:	59 	pop	ecx
  401ece:	74 2d 	je	45 <.text+0xEFD>
  401ed0:	ff 15 20 81 40 00 	call	dword ptr [4227360]
  401ed6:	6a 03 	push	3
  401ed8:	99 	cdq
  401ed9:	59 	pop	ecx
  401eda:	f7 f9 	idiv	ecx
  401edc:	8d 85 9a fd ff ff 	lea	eax, [ebp - 614]
  401ee2:	ff 74 95 f4 	push	dword ptr [ebp + 4*edx - 12]
  401ee6:	50 	push	eax
  401ee7:	e8 bc 57 00 00 	call	22460 <.text+0x66A8>
  401eec:	8d 85 e8 fc ff ff 	lea	eax, [ebp - 792]
  401ef2:	6a 00 	push	0
  401ef4:	50 	push	eax
  401ef5:	e8 06 f1 ff ff 	call	-3834 <.text>
  401efa:	83 c4 10 	add	esp, 16
  401efd:	c9 	leave
  401efe:	c3 	ret
  401eff:	55 	push	ebp
  401f00:	8b ec 	mov	ebp, esp
  401f02:	83 ec 64 	sub	esp, 100
  401f05:	56 	push	esi
  401f06:	6a 00 	push	0
  401f08:	68 b4 f4 40 00 	push	4256948
  401f0d:	8d 45 9c 	lea	eax, [ebp - 100]
  401f10:	68 ac f4 40 00 	push	4256940
  401f15:	50 	push	eax
  401f16:	ff 15 1c 81 40 00 	call	dword ptr [4227356]
  401f1c:	33 f6 	xor	esi, esi
  401f1e:	83 c4 10 	add	esp, 16
  401f21:	39 75 08 	cmp	dword ptr [ebp + 8], esi
  401f24:	7e 26 	jle	38 <.text+0xF4C>
  401f26:	8d 45 9c 	lea	eax, [ebp - 100]
  401f29:	50 	push	eax
  401f2a:	6a 01 	push	1
  401f2c:	68 00 00 10 00 	push	1048576
  401f31:	ff 15 80 80 40 00 	call	dword ptr [4227200]
  401f37:	85 c0 	test	eax, eax
  401f39:	75 16 	jne	22 <.text+0xF51>
  401f3b:	68 e8 03 00 00 	push	1000
  401f40:	ff 15 7c 80 40 00 	call	dword ptr [4227196]
  401f46:	46 	inc	esi
  401f47:	3b 75 08 	cmp	esi, dword ptr [ebp + 8]
  401f4a:	7c da 	jl	-38 <.text+0xF26>
  401f4c:	33 c0 	xor	eax, eax
  401f4e:	5e 	pop	esi
  401f4f:	c9 	leave
  401f50:	c3 	ret
  401f51:	50 	push	eax
  401f52:	ff 15 f0 80 40 00 	call	dword ptr [4227312]
  401f58:	6a 01 	push	1
  401f5a:	58 	pop	eax
  401f5b:	eb f1 	jmp	-15 <.text+0xF4E>
  401f5d:	55 	push	ebp
  401f5e:	8b ec 	mov	ebp, esp
  401f60:	81 ec 08 02 00 00 	sub	esp, 520
  401f66:	a0 10 f9 40 00 	mov	al, byte ptr [4258064]
  401f6b:	57 	push	edi
  401f6c:	88 85 f8 fd ff ff 	mov	byte ptr [ebp - 520], al
  401f72:	b9 81 00 00 00 	mov	ecx, 129
  401f77:	33 c0 	xor	eax, eax
  401f79:	8d bd f9 fd ff ff 	lea	edi, [ebp - 519]
  401f7f:	f3 	rep
  401f80:	ab 	stosd	dword ptr es:[edi], eax
  401f81:	66 ab 	stosw	word ptr es:[edi], ax
  401f83:	aa 	stosb	byte ptr es:[edi], al
  401f84:	8d 85 f8 fd ff ff 	lea	eax, [ebp - 520]
  401f8a:	6a 00 	push	0
  401f8c:	50 	push	eax
  401f8d:	68 08 02 00 00 	push	520
  401f92:	68 d8 f4 40 00 	push	4256984
  401f97:	ff 15 84 80 40 00 	call	dword ptr [4227204]
  401f9d:	8d 85 f8 fd ff ff 	lea	eax, [ebp - 520]
  401fa3:	50 	push	eax
  401fa4:	e8 3f fd ff ff 	call	-705 <.text+0xCE8>
  401fa9:	59 	pop	ecx
  401faa:	5f 	pop	edi
  401fab:	85 c0 	test	eax, eax
  401fad:	74 0c 	je	12 <.text+0xFBB>
  401faf:	6a 3c 	push	60
  401fb1:	e8 49 ff ff ff 	call	-183 <.text+0xEFF>
  401fb6:	85 c0 	test	eax, eax
  401fb8:	59 	pop	ecx
  401fb9:	75 23 	jne	35 <.text+0xFDE>
  401fbb:	6a 00 	push	0
  401fbd:	8d 85 f8 fd ff ff 	lea	eax, [ebp - 520]
  401fc3:	6a 00 	push	0
  401fc5:	50 	push	eax
  401fc6:	e8 99 f0 ff ff 	call	-3943 <.text+0x64>
  401fcb:	83 c4 0c 	add	esp, 12
  401fce:	85 c0 	test	eax, eax
  401fd0:	74 11 	je	17 <.text+0xFE3>
  401fd2:	6a 3c 	push	60
  401fd4:	e8 26 ff ff ff 	call	-218 <.text+0xEFF>
  401fd9:	85 c0 	test	eax, eax
  401fdb:	59 	pop	ecx
  401fdc:	74 05 	je	5 <.text+0xFE3>
  401fde:	6a 01 	push	1
  401fe0:	58 	pop	eax
  401fe1:	c9 	leave
  401fe2:	c3 	ret
  401fe3:	33 c0 	xor	eax, eax
  401fe5:	c9 	leave
  401fe6:	c3 	ret
  401fe7:	55 	push	ebp
  401fe8:	8b ec 	mov	ebp, esp
  401fea:	81 ec e4 06 00 00 	sub	esp, 1764
  401ff0:	a0 10 f9 40 00 	mov	al, byte ptr [4258064]
  401ff5:	53 	push	ebx
  401ff6:	56 	push	esi
  401ff7:	57 	push	edi
  401ff8:	88 85 f4 fd ff ff 	mov	byte ptr [ebp - 524], al
  401ffe:	b9 81 00 00 00 	mov	ecx, 129
  402003:	33 c0 	xor	eax, eax
  402005:	8d bd f5 fd ff ff 	lea	edi, [ebp - 523]
  40200b:	f3 	rep
  40200c:	ab 	stosd	dword ptr es:[edi], eax
  40200d:	66 ab 	stosw	word ptr es:[edi], ax
  40200f:	aa 	stosb	byte ptr es:[edi], al
  402010:	8d 85 f4 fd ff ff 	lea	eax, [ebp - 524]
  402016:	68 08 02 00 00 	push	520
  40201b:	33 db 	xor	ebx, ebx
  40201d:	50 	push	eax
  40201e:	53 	push	ebx
  40201f:	ff 15 8c 80 40 00 	call	dword ptr [4227212]
  402025:	68 ac f8 40 00 	push	4257964
  40202a:	e8 f6 f1 ff ff 	call	-3594 <.text+0x225>
  40202f:	59 	pop	ecx
  402030:	ff 15 6c 81 40 00 	call	dword ptr [4227436]
  402036:	83 38 02 	cmp	dword ptr [eax], 2
  402039:	75 53 	jne	83 <.text+0x108E>
  40203b:	68 38 f5 40 00 	push	4257080
  402040:	ff 15 68 81 40 00 	call	dword ptr [4227432]
  402046:	8b 00 	mov	eax, dword ptr [eax]
  402048:	ff 70 04 	push	dword ptr [eax + 4]
  40204b:	e8 f0 56 00 00 	call	22256 <.text+0x6740>
  402050:	59 	pop	ecx
  402051:	85 c0 	test	eax, eax
  402053:	59 	pop	ecx
  402054:	75 38 	jne	56 <.text+0x108E>
  402056:	53 	push	ebx
  402057:	e8 03 fb ff ff 	call	-1277 <.text+0xB5F>
  40205c:	85 c0 	test	eax, eax
  40205e:	59 	pop	ecx
  40205f:	74 2d 	je	45 <.text+0x108E>
  402061:	be d8 f4 40 00 	mov	esi, 4256984
  402066:	53 	push	ebx
  402067:	8d 85 f4 fd ff ff 	lea	eax, [ebp - 524]
  40206d:	56 	push	esi
  40206e:	50 	push	eax
  40206f:	ff 15 88 80 40 00 	call	dword ptr [4227208]
  402075:	56 	push	esi
  402076:	ff 15 68 80 40 00 	call	dword ptr [4227176]
  40207c:	83 f8 ff 	cmp	eax, -1
  40207f:	74 0d 	je	13 <.text+0x108E>
  402081:	e8 d7 fe ff ff 	call	-297 <.text+0xF5D>
  402086:	85 c0 	test	eax, eax
  402088:	0f 85 d7 00 00 00 	jne	215 <.text+0x1165>
  40208e:	8b 35 64 81 40 00 	mov	esi, dword ptr [4227428]
  402094:	8d 85 f4 fd ff ff 	lea	eax, [ebp - 524]
  40209a:	6a 5c 	push	92
  40209c:	50 	push	eax
  40209d:	ff d6 	call	esi
  40209f:	59 	pop	ecx
  4020a0:	85 c0 	test	eax, eax
  4020a2:	59 	pop	ecx
  4020a3:	74 0f 	je	15 <.text+0x10B4>
  4020a5:	8d 85 f4 fd ff ff 	lea	eax, [ebp - 524]
  4020ab:	6a 5c 	push	92
  4020ad:	50 	push	eax
  4020ae:	ff d6 	call	esi
  4020b0:	59 	pop	ecx
  4020b1:	88 18 	mov	byte ptr [eax], bl
  4020b3:	59 	pop	ecx
  4020b4:	8d 85 f4 fd ff ff 	lea	eax, [ebp - 524]
  4020ba:	50 	push	eax
  4020bb:	ff 15 d8 80 40 00 	call	dword ptr [4227288]
  4020c1:	6a 01 	push	1
  4020c3:	e8 35 f0 ff ff 	call	-4043 <.text+0xFD>
  4020c8:	c7 04 24 2c f5 40 00 	mov	dword ptr [esp], 4257068
  4020cf:	53 	push	ebx
  4020d0:	e8 d6 fc ff ff 	call	-810 <.text+0xDAB>
  4020d5:	e8 c4 fd ff ff 	call	-572 <.text+0xE9E>
  4020da:	53 	push	ebx
  4020db:	53 	push	ebx
  4020dc:	68 20 f5 40 00 	push	4257056
  4020e1:	e8 7e ef ff ff 	call	-4226 <.text+0x64>
  4020e6:	53 	push	ebx
  4020e7:	53 	push	ebx
  4020e8:	68 fc f4 40 00 	push	4257020
  4020ed:	e8 72 ef ff ff 	call	-4238 <.text+0x64>
  4020f2:	83 c4 20 	add	esp, 32
  4020f5:	e8 10 f6 ff ff 	call	-2544 <.text+0x70A>
  4020fa:	85 c0 	test	eax, eax
  4020fc:	74 67 	je	103 <.text+0x1165>
  4020fe:	8d 8d 1c f9 ff ff 	lea	ecx, [ebp - 1764]
  402104:	e8 f4 f1 ff ff 	call	-3596 <.text+0x2FD>
  402109:	53 	push	ebx
  40210a:	53 	push	ebx
  40210b:	53 	push	ebx
  40210c:	8d 8d 1c f9 ff ff 	lea	ecx, [ebp - 1764]
  402112:	e8 20 f3 ff ff 	call	-3296 <.text+0x437>
  402117:	85 c0 	test	eax, eax
  402119:	74 3f 	je	63 <.text+0x115A>
  40211b:	8d 45 fc 	lea	eax, [ebp - 4]
  40211e:	8d 8d 1c f9 ff ff 	lea	ecx, [ebp - 1764]
  402124:	50 	push	eax
  402125:	68 f4 f4 40 00 	push	4257012
  40212a:	89 5d fc 	mov	dword ptr [ebp - 4], ebx
  40212d:	e8 74 f3 ff ff 	call	-3212 <.text+0x4A6>
  402132:	3b c3 	cmp	eax, ebx
  402134:	74 24 	je	36 <.text+0x115A>
  402136:	ff 75 fc 	push	dword ptr [ebp - 4]
  402139:	50 	push	eax
  40213a:	e8 7e 00 00 00 	call	126 <.text+0x11BD>
  40213f:	59 	pop	ecx
  402140:	3b c3 	cmp	eax, ebx
  402142:	59 	pop	ecx
  402143:	74 15 	je	21 <.text+0x115A>
  402145:	68 e8 f4 40 00 	push	4257000
  40214a:	50 	push	eax
  40214b:	e8 d4 07 00 00 	call	2004 <.text+0x1924>
  402150:	59 	pop	ecx
  402151:	3b c3 	cmp	eax, ebx
  402153:	59 	pop	ecx
  402154:	74 04 	je	4 <.text+0x115A>
  402156:	53 	push	ebx
  402157:	53 	push	ebx
  402158:	ff d0 	call	eax
  40215a:	8d 8d 1c f9 ff ff 	lea	ecx, [ebp - 1764]
  402160:	e8 15 f2 ff ff 	call	-3563 <.text+0x37A>
  402165:	5f 	pop	edi
  402166:	5e 	pop	esi
  402167:	33 c0 	xor	eax, eax
  402169:	5b 	pop	ebx
  40216a:	c9 	leave
  40216b:	c2 10 00 	ret	16
  40216e:	ff 74 24 10 	push	dword ptr [esp + 16]
  402172:	ff 74 24 10 	push	dword ptr [esp + 16]
  402176:	ff 74 24 10 	push	dword ptr [esp + 16]
  40217a:	ff 74 24 10 	push	dword ptr [esp + 16]
  40217e:	ff 15 90 80 40 00 	call	dword ptr [4227216]
  402184:	c3 	ret
  402185:	ff 74 24 0c 	push	dword ptr [esp + 12]
  402189:	ff 74 24 0c 	push	dword ptr [esp + 12]
  40218d:	ff 74 24 0c 	push	dword ptr [esp + 12]
  402191:	ff 15 94 80 40 00 	call	dword ptr [4227220]
  402197:	c3 	ret
  402198:	ff 74 24 04 	push	dword ptr [esp + 4]
  40219c:	ff 15 e0 80 40 00 	call	dword ptr [4227296]
  4021a2:	c3 	ret
  4021a3:	ff 74 24 08 	push	dword ptr [esp + 8]
  4021a7:	ff 74 24 08 	push	dword ptr [esp + 8]
  4021ab:	ff 15 e4 80 40 00 	call	dword ptr [4227300]
  4021b1:	c3 	ret
  4021b2:	ff 74 24 04 	push	dword ptr [esp + 4]
  4021b6:	ff 15 98 80 40 00 	call	dword ptr [4227224]
  4021bc:	c3 	ret
  4021bd:	6a 00 	push	0
  4021bf:	68 b2 21 40 00 	push	4202930
  4021c4:	68 a3 21 40 00 	push	4202915
  4021c9:	68 98 21 40 00 	push	4202904
  4021ce:	68 85 21 40 00 	push	4202885
  4021d3:	68 6e 21 40 00 	push	4202862
  4021d8:	ff 74 24 20 	push	dword ptr [esp + 32]
  4021dc:	ff 74 24 20 	push	dword ptr [esp + 32]
  4021e0:	e8 04 00 00 00 	call	4 <.text+0x11E9>
  4021e5:	83 c4 20 	add	esp, 32
  4021e8:	c3 	ret
  4021e9:	55 	push	ebp
  4021ea:	8b ec 	mov	ebp, esp
  4021ec:	83 ec 28 	sub	esp, 40
  4021ef:	83 65 fc 00 	and	dword ptr [ebp - 4], 0
  4021f3:	53 	push	ebx
  4021f4:	56 	push	esi
  4021f5:	57 	push	edi
  4021f6:	6a 40 	push	64
  4021f8:	ff 75 0c 	push	dword ptr [ebp + 12]
  4021fb:	e8 57 02 00 00 	call	599 <.text+0x1457>
  402200:	59 	pop	ecx
  402201:	85 c0 	test	eax, eax
  402203:	59 	pop	ecx
  402204:	0f 84 33 02 00 00 	je	563 <.text+0x143D>
  40220a:	8b 75 08 	mov	esi, dword ptr [ebp + 8]
  40220d:	66 81 3e 4d 5a 	cmp	word ptr [esi], 23117
  402212:	74 10 	je	16 <.text+0x1224>
  402214:	68 c1 00 00 00 	push	193
  402219:	ff 15 a8 80 40 00 	call	dword ptr [4227240]
  40221f:	e9 19 02 00 00 	jmp	537 <.text+0x143D>
  402224:	8b 46 3c 	mov	eax, dword ptr [esi + 60]
  402227:	05 f8 00 00 00 	add	eax, 248
  40222c:	50 	push	eax
  40222d:	ff 75 0c 	push	dword ptr [ebp + 12]
  402230:	e8 22 02 00 00 	call	546 <.text+0x1457>
  402235:	59 	pop	ecx
  402236:	85 c0 	test	eax, eax
  402238:	59 	pop	ecx
  402239:	0f 84 fe 01 00 00 	je	510 <.text+0x143D>
  40223f:	8b 7e 3c 	mov	edi, dword ptr [esi + 60]
  402242:	03 fe 	add	edi, esi
  402244:	81 3f 50 45 00 00 	cmp	dword ptr [edi], 17744
  40224a:	75 c8 	jne	-56 <.text+0x1214>
  40224c:	66 81 7f 04 4c 01 	cmp	word ptr [edi + 4], 332
  402252:	75 c0 	jne	-64 <.text+0x1214>
  402254:	8b 5f 38 	mov	ebx, dword ptr [edi + 56]
  402257:	f6 c3 01 	test	bl, 1
  40225a:	75 b8 	jne	-72 <.text+0x1214>
  40225c:	0f b7 47 14 	movzx	eax, word ptr [edi + 20]
  402260:	0f b7 57 06 	movzx	edx, word ptr [edi + 6]
  402264:	85 d2 	test	edx, edx
  402266:	8d 44 38 18 	lea	eax, [eax + edi + 24]
  40226a:	76 20 	jbe	32 <.text+0x128C>
  40226c:	8d 48 0c 	lea	ecx, [eax + 12]
  40226f:	8b 71 04 	mov	esi, dword ptr [ecx + 4]
  402272:	8b 01 	mov	eax, dword ptr [ecx]
  402274:	85 f6 	test	esi, esi
  402276:	75 04 	jne	4 <.text+0x127C>
  402278:	03 c3 	add	eax, ebx
  40227a:	eb 02 	jmp	2 <.text+0x127E>
  40227c:	03 c6 	add	eax, esi
  40227e:	3b 45 fc 	cmp	eax, dword ptr [ebp - 4]
  402281:	76 03 	jbe	3 <.text+0x1286>
  402283:	89 45 fc 	mov	dword ptr [ebp - 4], eax
  402286:	83 c1 28 	add	ecx, 40
  402289:	4a 	dec	edx
  40228a:	75 e3 	jne	-29 <.text+0x126F>
  40228c:	68 e8 eb 40 00 	push	4254696
  402291:	ff 15 a4 80 40 00 	call	dword ptr [4227236]
  402297:	85 c0 	test	eax, eax
  402299:	0f 84 9e 01 00 00 	je	414 <.text+0x143D>
  40229f:	6a 00 	push	0
  4022a1:	68 5c f5 40 00 	push	4257116
  4022a6:	50 	push	eax
  4022a7:	ff 55 1c 	call	dword ptr [ebp + 28]
  4022aa:	83 c4 0c 	add	esp, 12
  4022ad:	85 c0 	test	eax, eax
  4022af:	0f 84 88 01 00 00 	je	392 <.text+0x143D>
  4022b5:	8d 4d d8 	lea	ecx, [ebp - 40]
  4022b8:	51 	push	ecx
  4022b9:	ff d0 	call	eax
  4022bb:	8b 45 dc 	mov	eax, dword ptr [ebp - 36]
  4022be:	8b 57 50 	mov	edx, dword ptr [edi + 80]
  4022c1:	8d 74 02 ff 	lea	esi, [edx + eax - 1]
  4022c5:	8b 55 fc 	mov	edx, dword ptr [ebp - 4]
  4022c8:	8d 48 ff 	lea	ecx, [eax - 1]
  4022cb:	f7 d1 	not	ecx
  4022cd:	8d 44 10 ff 	lea	eax, [eax + edx - 1]
  4022d1:	23 f1 	and	esi, ecx
  4022d3:	23 c1 	and	eax, ecx
  4022d5:	3b f0 	cmp	esi, eax
  4022d7:	0f 85 37 ff ff ff 	jne	-201 <.text+0x1214>
  4022dd:	ff 75 24 	push	dword ptr [ebp + 36]
  4022e0:	6a 04 	push	4
  4022e2:	68 00 30 00 00 	push	12288
  4022e7:	56 	push	esi
  4022e8:	ff 77 34 	push	dword ptr [edi + 52]
  4022eb:	ff 55 10 	call	dword ptr [ebp + 16]
  4022ee:	8b d8 	mov	ebx, eax
  4022f0:	83 c4 14 	add	esp, 20
  4022f3:	85 db 	test	ebx, ebx
  4022f5:	75 18 	jne	24 <.text+0x130F>
  4022f7:	ff 75 24 	push	dword ptr [ebp + 36]
  4022fa:	6a 04 	push	4
  4022fc:	68 00 30 00 00 	push	12288
  402301:	56 	push	esi
  402302:	50 	push	eax
  402303:	ff 55 10 	call	dword ptr [ebp + 16]
  402306:	8b d8 	mov	ebx, eax
  402308:	83 c4 14 	add	esp, 20
  40230b:	85 db 	test	ebx, ebx
  40230d:	74 27 	je	39 <.text+0x1336>
  40230f:	6a 3c 	push	60
  402311:	6a 08 	push	8
  402313:	ff 15 a0 80 40 00 	call	dword ptr [4227232]
  402319:	50 	push	eax
  40231a:	ff 15 9c 80 40 00 	call	dword ptr [4227228]
  402320:	8b f0 	mov	esi, eax
  402322:	85 f6 	test	esi, esi
  402324:	75 17 	jne	23 <.text+0x133D>
  402326:	ff 75 24 	push	dword ptr [ebp + 36]
  402329:	68 00 80 00 00 	push	32768
  40232e:	50 	push	eax
  40232f:	53 	push	ebx
  402330:	ff 55 14 	call	dword ptr [ebp + 20]
  402333:	83 c4 10 	add	esp, 16
  402336:	6a 0e 	push	14
  402338:	e9 dc fe ff ff 	jmp	-292 <.text+0x1219>
  40233d:	89 5e 04 	mov	dword ptr [esi + 4], ebx
  402340:	66 8b 47 16 	mov	ax, word ptr [edi + 22]
  402344:	c1 e8 0d 	shr	eax, 13
  402347:	83 e0 01 	and	eax, 1
  40234a:	89 46 14 	mov	dword ptr [esi + 20], eax
  40234d:	8b 45 10 	mov	eax, dword ptr [ebp + 16]
  402350:	89 46 1c 	mov	dword ptr [esi + 28], eax
  402353:	8b 45 14 	mov	eax, dword ptr [ebp + 20]
  402356:	89 46 20 	mov	dword ptr [esi + 32], eax
  402359:	8b 45 18 	mov	eax, dword ptr [ebp + 24]
  40235c:	89 46 24 	mov	dword ptr [esi + 36], eax
  40235f:	8b 45 1c 	mov	eax, dword ptr [ebp + 28]
  402362:	89 46 28 	mov	dword ptr [esi + 40], eax
  402365:	8b 45 20 	mov	eax, dword ptr [ebp + 32]
  402368:	89 46 2c 	mov	dword ptr [esi + 44], eax
  40236b:	8b 45 24 	mov	eax, dword ptr [ebp + 36]
  40236e:	89 46 30 	mov	dword ptr [esi + 48], eax
  402371:	8b 45 dc 	mov	eax, dword ptr [ebp - 36]
  402374:	89 46 38 	mov	dword ptr [esi + 56], eax
  402377:	ff 77 54 	push	dword ptr [edi + 84]
  40237a:	ff 75 0c 	push	dword ptr [ebp + 12]
  40237d:	e8 d5 00 00 00 	call	213 <.text+0x1457>
  402382:	59 	pop	ecx
  402383:	85 c0 	test	eax, eax
  402385:	59 	pop	ecx
  402386:	0f 84 aa 00 00 00 	je	170 <.text+0x1436>
  40238c:	ff 75 24 	push	dword ptr [ebp + 36]
  40238f:	6a 04 	push	4
  402391:	68 00 10 00 00 	push	4096
  402396:	ff 77 54 	push	dword ptr [edi + 84]
  402399:	53 	push	ebx
  40239a:	ff 55 10 	call	dword ptr [ebp + 16]
  40239d:	ff 77 54 	push	dword ptr [edi + 84]
  4023a0:	89 45 24 	mov	dword ptr [ebp + 36], eax
  4023a3:	ff 75 08 	push	dword ptr [ebp + 8]
  4023a6:	50 	push	eax
  4023a7:	e8 5a 53 00 00 	call	21338 <.text+0x6706>
  4023ac:	8b 4d 08 	mov	ecx, dword ptr [ebp + 8]
  4023af:	8b 55 24 	mov	edx, dword ptr [ebp + 36]
  4023b2:	56 	push	esi
  4023b3:	57 	push	edi
  4023b4:	8b 41 3c 	mov	eax, dword ptr [ecx + 60]
  4023b7:	ff 75 0c 	push	dword ptr [ebp + 12]
  4023ba:	03 c2 	add	eax, edx
  4023bc:	89 06 	mov	dword ptr [esi], eax
  4023be:	51 	push	ecx
  4023bf:	89 58 34 	mov	dword ptr [eax + 52], ebx
  4023c2:	e8 a9 00 00 00 	call	169 <.text+0x1470>
  4023c7:	83 c4 30 	add	esp, 48
  4023ca:	85 c0 	test	eax, eax
  4023cc:	74 68 	je	104 <.text+0x1436>
  4023ce:	8b 06 	mov	eax, dword ptr [esi]
  4023d0:	8b 40 34 	mov	eax, dword ptr [eax + 52]
  4023d3:	2b 47 34 	sub	eax, dword ptr [edi + 52]
  4023d6:	74 11 	je	17 <.text+0x13E9>
  4023d8:	50 	push	eax
  4023d9:	56 	push	esi
  4023da:	e8 79 03 00 00 	call	889 <.text+0x1758>
  4023df:	59 	pop	ecx
  4023e0:	89 46 18 	mov	dword ptr [esi + 24], eax
  4023e3:	59 	pop	ecx
  4023e4:	6a 01 	push	1
  4023e6:	5f 	pop	edi
  4023e7:	eb 06 	jmp	6 <.text+0x13EF>
  4023e9:	6a 01 	push	1
  4023eb:	5f 	pop	edi
  4023ec:	89 7e 18 	mov	dword ptr [esi + 24], edi
  4023ef:	56 	push	esi
  4023f0:	e8 ea 03 00 00 	call	1002 <.text+0x17DF>
  4023f5:	85 c0 	test	eax, eax
  4023f7:	59 	pop	ecx
  4023f8:	74 3c 	je	60 <.text+0x1436>
  4023fa:	56 	push	esi
  4023fb:	e8 4b 01 00 00 	call	331 <.text+0x154B>
  402400:	85 c0 	test	eax, eax
  402402:	59 	pop	ecx
  402403:	74 31 	je	49 <.text+0x1436>
  402405:	56 	push	esi
  402406:	e8 12 03 00 00 	call	786 <.text+0x171D>
  40240b:	85 c0 	test	eax, eax
  40240d:	59 	pop	ecx
  40240e:	74 26 	je	38 <.text+0x1436>
  402410:	8b 06 	mov	eax, dword ptr [esi]
  402412:	33 c9 	xor	ecx, ecx
  402414:	8b 40 28 	mov	eax, dword ptr [eax + 40]
  402417:	3b c1 	cmp	eax, ecx
  402419:	74 32 	je	50 <.text+0x144D>
  40241b:	39 4e 14 	cmp	dword ptr [esi + 20], ecx
  40241e:	74 26 	je	38 <.text+0x1446>
  402420:	51 	push	ecx
  402421:	57 	push	edi
  402422:	03 c3 	add	eax, ebx
  402424:	53 	push	ebx
  402425:	ff d0 	call	eax
  402427:	85 c0 	test	eax, eax
  402429:	75 16 	jne	22 <.text+0x1441>
  40242b:	68 5a 04 00 00 	push	1114
  402430:	ff 15 a8 80 40 00 	call	dword ptr [4227240]
  402436:	56 	push	esi
  402437:	e8 90 05 00 00 	call	1424 <.text+0x19CC>
  40243c:	59 	pop	ecx
  40243d:	33 c0 	xor	eax, eax
  40243f:	eb 11 	jmp	17 <.text+0x1452>
  402441:	89 7e 10 	mov	dword ptr [esi + 16], edi
  402444:	eb 0a 	jmp	10 <.text+0x1450>
  402446:	03 c3 	add	eax, ebx
  402448:	89 46 34 	mov	dword ptr [esi + 52], eax
  40244b:	eb 03 	jmp	3 <.text+0x1450>
  40244d:	89 4e 34 	mov	dword ptr [esi + 52], ecx
  402450:	8b c6 	mov	eax, esi
  402452:	5f 	pop	edi
  402453:	5e 	pop	esi
  402454:	5b 	pop	ebx
  402455:	c9 	leave
  402456:	c3 	ret
  402457:	8b 44 24 04 	mov	eax, dword ptr [esp + 4]
  40245b:	3b 44 24 08 	cmp	eax, dword ptr [esp + 8]
  40245f:	73 0b 	jae	11 <.text+0x146C>
  402461:	6a 0d 	push	13
  402463:	ff 15 a8 80 40 00 	call	dword ptr [4227240]
  402469:	33 c0 	xor	eax, eax
  40246b:	c3 	ret
  40246c:	6a 01 	push	1
  40246e:	58 	pop	eax
  40246f:	c3 	ret
  402470:	55 	push	ebp
  402471:	8b ec 	mov	ebp, esp
  402473:	51 	push	ecx
  402474:	53 	push	ebx
  402475:	56 	push	esi
  402476:	57 	push	edi
  402477:	8b 7d 14 	mov	edi, dword ptr [ebp + 20]
  40247a:	83 65 fc 00 	and	dword ptr [ebp - 4], 0
  40247e:	8b 47 04 	mov	eax, dword ptr [edi + 4]
  402481:	89 45 14 	mov	dword ptr [ebp + 20], eax
  402484:	8b 07 	mov	eax, dword ptr [edi]
  402486:	0f b7 48 14 	movzx	ecx, word ptr [eax + 20]
  40248a:	66 83 78 06 00 	cmp	word ptr [eax + 6], 0
  40248f:	8d 74 01 18 	lea	esi, [ecx + eax + 24]
  402493:	0f 86 a6 00 00 00 	jbe	166 <.text+0x153F>
  402499:	83 c6 10 	add	esi, 16
  40249c:	8b 06 	mov	eax, dword ptr [esi]
  40249e:	85 c0 	test	eax, eax
  4024a0:	75 3d 	jne	61 <.text+0x14DF>
  4024a2:	8b 45 10 	mov	eax, dword ptr [ebp + 16]
  4024a5:	8b 58 38 	mov	ebx, dword ptr [eax + 56]
  4024a8:	85 db 	test	ebx, ebx
  4024aa:	7e 7e 	jle	126 <.text+0x152A>
  4024ac:	ff 77 30 	push	dword ptr [edi + 48]
  4024af:	8b 45 14 	mov	eax, dword ptr [ebp + 20]
  4024b2:	03 46 fc 	add	eax, dword ptr [esi - 4]
  4024b5:	6a 04 	push	4
  4024b7:	68 00 10 00 00 	push	4096
  4024bc:	53 	push	ebx
  4024bd:	50 	push	eax
  4024be:	ff 57 1c 	call	dword ptr [edi + 28]
  4024c1:	83 c4 14 	add	esp, 20
  4024c4:	85 c0 	test	eax, eax
  4024c6:	74 7f 	je	127 <.text+0x1547>
  4024c8:	8b 45 14 	mov	eax, dword ptr [ebp + 20]
  4024cb:	53 	push	ebx
  4024cc:	03 46 fc 	add	eax, dword ptr [esi - 4]
  4024cf:	6a 00 	push	0
  4024d1:	50 	push	eax
  4024d2:	89 46 f8 	mov	dword ptr [esi - 8], eax
  4024d5:	e8 d4 51 00 00 	call	20948 <.text+0x66AE>
  4024da:	83 c4 0c 	add	esp, 12
  4024dd:	eb 4b 	jmp	75 <.text+0x152A>
  4024df:	8b 4e 04 	mov	ecx, dword ptr [esi + 4]
  4024e2:	03 c8 	add	ecx, eax
  4024e4:	51 	push	ecx
  4024e5:	ff 75 0c 	push	dword ptr [ebp + 12]
  4024e8:	e8 6a ff ff ff 	call	-150 <.text+0x1457>
  4024ed:	59 	pop	ecx
  4024ee:	85 c0 	test	eax, eax
  4024f0:	59 	pop	ecx
  4024f1:	74 54 	je	84 <.text+0x1547>
  4024f3:	ff 77 30 	push	dword ptr [edi + 48]
  4024f6:	8b 5d 14 	mov	ebx, dword ptr [ebp + 20]
  4024f9:	8b c3 	mov	eax, ebx
  4024fb:	03 46 fc 	add	eax, dword ptr [esi - 4]
  4024fe:	6a 04 	push	4
  402500:	68 00 10 00 00 	push	4096
  402505:	ff 36 	push	dword ptr [esi]
  402507:	50 	push	eax
  402508:	ff 57 1c 	call	dword ptr [edi + 28]
  40250b:	83 c4 14 	add	esp, 20
  40250e:	85 c0 	test	eax, eax
  402510:	74 35 	je	53 <.text+0x1547>
  402512:	8b 46 04 	mov	eax, dword ptr [esi + 4]
  402515:	ff 36 	push	dword ptr [esi]
  402517:	03 45 08 	add	eax, dword ptr [ebp + 8]
  40251a:	03 5e fc 	add	ebx, dword ptr [esi - 4]
  40251d:	50 	push	eax
  40251e:	53 	push	ebx
  40251f:	e8 e2 51 00 00 	call	20962 <.text+0x6706>
  402524:	83 c4 0c 	add	esp, 12
  402527:	89 5e f8 	mov	dword ptr [esi - 8], ebx
  40252a:	8b 07 	mov	eax, dword ptr [edi]
  40252c:	ff 45 fc 	inc	dword ptr [ebp - 4]
  40252f:	83 c6 28 	add	esi, 40
  402532:	0f b7 40 06 	movzx	eax, word ptr [eax + 6]
  402536:	39 45 fc 	cmp	dword ptr [ebp - 4], eax
  402539:	0f 8c 5d ff ff ff 	jl	-163 <.text+0x149C>
  40253f:	6a 01 	push	1
  402541:	58 	pop	eax
  402542:	5f 	pop	edi
  402543:	5e 	pop	esi
  402544:	5b 	pop	ebx
  402545:	c9 	leave
  402546:	c3 	ret
  402547:	33 c0 	xor	eax, eax
  402549:	eb f7 	jmp	-9 <.text+0x1542>
  40254b:	55 	push	ebp
  40254c:	8b ec 	mov	ebp, esp
  40254e:	83 ec 1c 	sub	esp, 28
  402551:	53 	push	ebx
  402552:	8b 5d 08 	mov	ebx, dword ptr [ebp + 8]
  402555:	56 	push	esi
  402556:	57 	push	edi
  402557:	8b 03 	mov	eax, dword ptr [ebx]
  402559:	0f b7 48 14 	movzx	ecx, word ptr [eax + 20]
  40255d:	8d 74 01 18 	lea	esi, [ecx + eax + 24]
  402561:	8b 4b 38 	mov	ecx, dword ptr [ebx + 56]
  402564:	49 	dec	ecx
  402565:	56 	push	esi
  402566:	8b 46 08 	mov	eax, dword ptr [esi + 8]
  402569:	53 	push	ebx
  40256a:	f7 d1 	not	ecx
  40256c:	23 c8 	and	ecx, eax
  40256e:	89 45 e4 	mov	dword ptr [ebp - 28], eax
  402571:	89 4d e8 	mov	dword ptr [ebp - 24], ecx
  402574:	e8 d6 00 00 00 	call	214 <.text+0x164F>
  402579:	59 	pop	ecx
  40257a:	89 45 ec 	mov	dword ptr [ebp - 20], eax
  40257d:	8b 46 24 	mov	eax, dword ptr [esi + 36]
  402580:	83 65 f4 00 	and	dword ptr [ebp - 12], 0
  402584:	59 	pop	ecx
  402585:	89 45 f0 	mov	dword ptr [ebp - 16], eax
  402588:	8b 0b 	mov	ecx, dword ptr [ebx]
  40258a:	6a 01 	push	1
  40258c:	58 	pop	eax
  40258d:	83 c6 28 	add	esi, 40
  402590:	66 39 41 06 	cmp	word ptr [ecx + 6], ax
  402594:	89 45 08 	mov	dword ptr [ebp + 8], eax
  402597:	0f 86 94 00 00 00 	jbe	148 <.text+0x1631>
  40259d:	8b 7b 38 	mov	edi, dword ptr [ebx + 56]
  4025a0:	8b 46 08 	mov	eax, dword ptr [esi + 8]
  4025a3:	4f 	dec	edi
  4025a4:	56 	push	esi
  4025a5:	f7 d7 	not	edi
  4025a7:	53 	push	ebx
  4025a8:	89 45 fc 	mov	dword ptr [ebp - 4], eax
  4025ab:	23 f8 	and	edi, eax
  4025ad:	e8 9d 00 00 00 	call	157 <.text+0x164F>
  4025b2:	39 7d e8 	cmp	dword ptr [ebp - 24], edi
  4025b5:	8b 55 e4 	mov	edx, dword ptr [ebp - 28]
  4025b8:	59 	pop	ecx
  4025b9:	89 45 f8 	mov	dword ptr [ebp - 8], eax
  4025bc:	59 	pop	ecx
  4025bd:	74 30 	je	48 <.text+0x15EF>
  4025bf:	8b 4d ec 	mov	ecx, dword ptr [ebp - 20]
  4025c2:	03 ca 	add	ecx, edx
  4025c4:	3b cf 	cmp	ecx, edi
  4025c6:	77 27 	ja	39 <.text+0x15EF>
  4025c8:	8d 45 e4 	lea	eax, [ebp - 28]
  4025cb:	50 	push	eax
  4025cc:	53 	push	ebx
  4025cd:	e8 a9 00 00 00 	call	169 <.text+0x167B>
  4025d2:	59 	pop	ecx
  4025d3:	85 c0 	test	eax, eax
  4025d5:	59 	pop	ecx
  4025d6:	74 73 	je	115 <.text+0x164B>
  4025d8:	8b 45 fc 	mov	eax, dword ptr [ebp - 4]
  4025db:	89 7d e8 	mov	dword ptr [ebp - 24], edi
  4025de:	89 45 e4 	mov	dword ptr [ebp - 28], eax
  4025e1:	8b 45 f8 	mov	eax, dword ptr [ebp - 8]
  4025e4:	89 45 ec 	mov	dword ptr [ebp - 20], eax
  4025e7:	8b 46 24 	mov	eax, dword ptr [esi + 36]
  4025ea:	89 45 f0 	mov	dword ptr [ebp - 16], eax
  4025ed:	eb 2a 	jmp	42 <.text+0x1619>
  4025ef:	8b 4e 24 	mov	ecx, dword ptr [esi + 36]
  4025f2:	bf 00 00 00 02 	mov	edi, 33554432
  4025f7:	85 cf 	test	edi, ecx
  4025f9:	74 0a 	je	10 <.text+0x1605>
  4025fb:	85 7d f0 	test	edi, dword ptr [ebp - 16]
  4025fe:	74 05 	je	5 <.text+0x1605>
  402600:	09 4d f0 	or	dword ptr [ebp - 16], ecx
  402603:	eb 0c 	jmp	12 <.text+0x1611>
  402605:	0b 4d f0 	or	ecx, dword ptr [ebp - 16]
  402608:	81 e1 ff ff ff fd 	and	ecx, 4261412863
  40260e:	89 4d f0 	mov	dword ptr [ebp - 16], ecx
  402611:	2b c2 	sub	eax, edx
  402613:	03 45 fc 	add	eax, dword ptr [ebp - 4]
  402616:	89 45 ec 	mov	dword ptr [ebp - 20], eax
  402619:	8b 03 	mov	eax, dword ptr [ebx]
  40261b:	ff 45 08 	inc	dword ptr [ebp + 8]
  40261e:	83 c6 28 	add	esi, 40
  402621:	0f b7 40 06 	movzx	eax, word ptr [eax + 6]
  402625:	39 45 08 	cmp	dword ptr [ebp + 8], eax
  402628:	0f 8c 6f ff ff ff 	jl	-145 <.text+0x159D>
  40262e:	6a 01 	push	1
  402630:	58 	pop	eax
  402631:	89 45 f4 	mov	dword ptr [ebp - 12], eax
  402634:	8d 45 e4 	lea	eax, [ebp - 28]
  402637:	50 	push	eax
  402638:	53 	push	ebx
  402639:	e8 3d 00 00 00 	call	61 <.text+0x167B>
  40263e:	f7 d8 	neg	eax
  402640:	59 	pop	ecx
  402641:	1b c0 	sbb	eax, eax
  402643:	59 	pop	ecx
  402644:	f7 d8 	neg	eax
  402646:	5f 	pop	edi
  402647:	5e 	pop	esi
  402648:	5b 	pop	ebx
  402649:	c9 	leave
  40264a:	c3 	ret
  40264b:	33 c0 	xor	eax, eax
  40264d:	eb f7 	jmp	-9 <.text+0x1646>
  40264f:	8b 4c 24 08 	mov	ecx, dword ptr [esp + 8]
  402653:	8b 41 10 	mov	eax, dword ptr [ecx + 16]
  402656:	85 c0 	test	eax, eax
  402658:	75 20 	jne	32 <.text+0x167A>
  40265a:	8b 49 24 	mov	ecx, dword ptr [ecx + 36]
  40265d:	f6 c1 40 	test	cl, 64
  402660:	74 0a 	je	10 <.text+0x166C>
  402662:	8b 44 24 04 	mov	eax, dword ptr [esp + 4]
  402666:	8b 00 	mov	eax, dword ptr [eax]
  402668:	8b 40 20 	mov	eax, dword ptr [eax + 32]
  40266b:	c3 	ret
  40266c:	f6 c1 80 	test	cl, -128
  40266f:	74 09 	je	9 <.text+0x167A>
  402671:	8b 44 24 04 	mov	eax, dword ptr [esp + 4]
  402675:	8b 00 	mov	eax, dword ptr [eax]
  402677:	8b 40 24 	mov	eax, dword ptr [eax + 36]
  40267a:	c3 	ret
  40267b:	55 	push	ebp
  40267c:	8b ec 	mov	ebp, esp
  40267e:	8b 45 0c 	mov	eax, dword ptr [ebp + 12]
  402681:	53 	push	ebx
  402682:	56 	push	esi
  402683:	8b 58 08 	mov	ebx, dword ptr [eax + 8]
  402686:	85 db 	test	ebx, ebx
  402688:	75 08 	jne	8 <.text+0x1692>
  40268a:	6a 01 	push	1
  40268c:	58 	pop	eax
  40268d:	e9 87 00 00 00 	jmp	135 <.text+0x1719>
  402692:	8b 48 0c 	mov	ecx, dword ptr [eax + 12]
  402695:	f7 c1 00 00 00 02 	test	ecx, 33554432
  40269b:	74 3b 	je	59 <.text+0x16D8>
  40269d:	57 	push	edi
  40269e:	8b 38 	mov	edi, dword ptr [eax]
  4026a0:	3b 78 04 	cmp	edi, dword ptr [eax + 4]
  4026a3:	75 2d 	jne	45 <.text+0x16D2>
  4026a5:	83 78 10 00 	cmp	dword ptr [eax + 16], 0
  4026a9:	8b 4d 08 	mov	ecx, dword ptr [ebp + 8]
  4026ac:	75 14 	jne	20 <.text+0x16C2>
  4026ae:	8b 01 	mov	eax, dword ptr [ecx]
  4026b0:	8b 71 38 	mov	esi, dword ptr [ecx + 56]
  4026b3:	39 70 38 	cmp	dword ptr [eax + 56], esi
  4026b6:	74 0a 	je	10 <.text+0x16C2>
  4026b8:	8b c3 	mov	eax, ebx
  4026ba:	33 d2 	xor	edx, edx
  4026bc:	f7 f6 	div	esi
  4026be:	85 d2 	test	edx, edx
  4026c0:	75 10 	jne	16 <.text+0x16D2>
  4026c2:	ff 71 30 	push	dword ptr [ecx + 48]
  4026c5:	68 00 40 00 00 	push	16384
  4026ca:	53 	push	ebx
  4026cb:	57 	push	edi
  4026cc:	ff 51 20 	call	dword ptr [ecx + 32]
  4026cf:	83 c4 10 	add	esp, 16
  4026d2:	6a 01 	push	1
  4026d4:	58 	pop	eax
  4026d5:	5f 	pop	edi
  4026d6:	eb 41 	jmp	65 <.text+0x1719>
  4026d8:	8b d1 	mov	edx, ecx
  4026da:	8b f1 	mov	esi, ecx
  4026dc:	c1 ea 1d 	shr	edx, 29
  4026df:	c1 ee 1e 	shr	esi, 30
  4026e2:	83 e2 01 	and	edx, 1
  4026e5:	83 e6 01 	and	esi, 1
  4026e8:	8d 14 56 	lea	edx, [esi + 2*edx]
  4026eb:	8b f1 	mov	esi, ecx
  4026ed:	c1 ee 1f 	shr	esi, 31
  4026f0:	f7 c1 00 00 00 04 	test	ecx, 67108864
  4026f6:	8d 14 56 	lea	edx, [esi + 2*edx]
  4026f9:	8b 14 95 3c f5 40 00 	mov	edx, dword ptr [4*edx + 4257084]
  402700:	74 03 	je	3 <.text+0x1705>
  402702:	80 ce 02 	or	dh, 2
  402705:	8d 4d 0c 	lea	ecx, [ebp + 12]
  402708:	51 	push	ecx
  402709:	52 	push	edx
  40270a:	53 	push	ebx
  40270b:	ff 30 	push	dword ptr [eax]
  40270d:	ff 15 ac 80 40 00 	call	dword ptr [4227244]
  402713:	f7 d8 	neg	eax
  402715:	1b c0 	sbb	eax, eax
  402717:	f7 d8 	neg	eax
  402719:	5e 	pop	esi
  40271a:	5b 	pop	ebx
  40271b:	5d 	pop	ebp
  40271c:	c3 	ret
  40271d:	8b 44 24 04 	mov	eax, dword ptr [esp + 4]
  402721:	57 	push	edi
  402722:	8b 78 04 	mov	edi, dword ptr [eax + 4]
  402725:	8b 00 	mov	eax, dword ptr [eax]
  402727:	05 c0 00 00 00 	add	eax, 192
  40272c:	8b 00 	mov	eax, dword ptr [eax]
  40272e:	85 c0 	test	eax, eax
  402730:	75 05 	jne	5 <.text+0x1737>
  402732:	6a 01 	push	1
  402734:	58 	pop	eax
  402735:	5f 	pop	edi
  402736:	c3 	ret
  402737:	56 	push	esi
  402738:	8b 74 38 0c 	mov	esi, dword ptr [eax + edi + 12]
  40273c:	85 f6 	test	esi, esi
  40273e:	74 12 	je	18 <.text+0x1752>
  402740:	8b 06 	mov	eax, dword ptr [esi]
  402742:	85 c0 	test	eax, eax
  402744:	74 0c 	je	12 <.text+0x1752>
  402746:	6a 00 	push	0
  402748:	6a 01 	push	1
  40274a:	57 	push	edi
  40274b:	ff d0 	call	eax
  40274d:	83 c6 04 	add	esi, 4
  402750:	eb ee 	jmp	-18 <.text+0x1740>
  402752:	6a 01 	push	1
  402754:	58 	pop	eax
  402755:	5e 	pop	esi
  402756:	5f 	pop	edi
  402757:	c3 	ret
  402758:	55 	push	ebp
  402759:	8b ec 	mov	ebp, esp
  40275b:	8b 45 08 	mov	eax, dword ptr [ebp + 8]
  40275e:	56 	push	esi
  40275f:	8b 70 04 	mov	esi, dword ptr [eax + 4]
  402762:	8b 00 	mov	eax, dword ptr [eax]
  402764:	05 a0 00 00 00 	add	eax, 160
  402769:	83 78 04 00 	cmp	dword ptr [eax + 4], 0
  40276d:	75 0a 	jne	10 <.text+0x1779>
  40276f:	33 c0 	xor	eax, eax
  402771:	39 45 0c 	cmp	dword ptr [ebp + 12], eax
  402774:	0f 94 c0 	sete	al
  402777:	eb 63 	jmp	99 <.text+0x17DC>
  402779:	8b 00 	mov	eax, dword ptr [eax]
  40277b:	03 c6 	add	eax, esi
  40277d:	8b 08 	mov	ecx, dword ptr [eax]
  40277f:	85 c9 	test	ecx, ecx
  402781:	76 56 	jbe	86 <.text+0x17D9>
  402783:	53 	push	ebx
  402784:	57 	push	edi
  402785:	83 65 08 00 	and	dword ptr [ebp + 8], 0
  402789:	8d 3c 31 	lea	edi, [ecx + esi]
  40278c:	8b 48 04 	mov	ecx, dword ptr [eax + 4]
  40278f:	8d 50 08 	lea	edx, [eax + 8]
  402792:	83 e9 08 	sub	ecx, 8
  402795:	f7 c1 fe ff ff ff 	test	ecx, 4294967294
  40279b:	76 31 	jbe	49 <.text+0x17CE>
  40279d:	0f b7 0a 	movzx	ecx, word ptr [edx]
  4027a0:	8b d9 	mov	ebx, ecx
  4027a2:	66 81 e3 00 f0 	and	bx, 61440
  4027a7:	81 fb 00 30 00 00 	cmp	ebx, 12288
  4027ad:	75 0d 	jne	13 <.text+0x17BC>
  4027af:	8b 5d 0c 	mov	ebx, dword ptr [ebp + 12]
  4027b2:	81 e1 ff 0f 00 00 	and	ecx, 4095
  4027b8:	03 cf 	add	ecx, edi
  4027ba:	01 19 	add	dword ptr [ecx], ebx
  4027bc:	8b 48 04 	mov	ecx, dword ptr [eax + 4]
  4027bf:	ff 45 08 	inc	dword ptr [ebp + 8]
  4027c2:	83 e9 08 	sub	ecx, 8
  4027c5:	42 	inc	edx
  4027c6:	d1 e9 	shr	ecx
  4027c8:	42 	inc	edx
  4027c9:	39 4d 08 	cmp	dword ptr [ebp + 8], ecx
  4027cc:	72 cf 	jb	-49 <.text+0x179D>
  4027ce:	03 40 04 	add	eax, dword ptr [eax + 4]
  4027d1:	8b 08 	mov	ecx, dword ptr [eax]
  4027d3:	85 c9 	test	ecx, ecx
  4027d5:	77 ae 	ja	-82 <.text+0x1785>
  4027d7:	5f 	pop	edi
  4027d8:	5b 	pop	ebx
  4027d9:	6a 01 	push	1
  4027db:	58 	pop	eax
  4027dc:	5e 	pop	esi
  4027dd:	5d 	pop	ebp
  4027de:	c3 	ret
  4027df:	55 	push	ebp
  4027e0:	8b ec 	mov	ebp, esp
  4027e2:	83 ec 0c 	sub	esp, 12
  4027e5:	56 	push	esi
  4027e6:	8b 75 08 	mov	esi, dword ptr [ebp + 8]
  4027e9:	57 	push	edi
  4027ea:	6a 01 	push	1
  4027ec:	8b 06 	mov	eax, dword ptr [esi]
  4027ee:	8b 7e 04 	mov	edi, dword ptr [esi + 4]
  4027f1:	05 80 00 00 00 	add	eax, 128
  4027f6:	59 	pop	ecx
  4027f7:	89 7d f4 	mov	dword ptr [ebp - 12], edi
  4027fa:	89 4d f8 	mov	dword ptr [ebp - 8], ecx
  4027fd:	83 78 04 00 	cmp	dword ptr [eax + 4], 0
  402801:	75 07 	jne	7 <.text+0x180A>
  402803:	8b c1 	mov	eax, ecx
  402805:	e9 16 01 00 00 	jmp	278 <.text+0x1920>
  40280a:	53 	push	ebx
  40280b:	8b 18 	mov	ebx, dword ptr [eax]
  40280d:	03 df 	add	ebx, edi
  40280f:	6a 14 	push	20
  402811:	53 	push	ebx
  402812:	ff 15 b0 80 40 00 	call	dword ptr [4227248]
  402818:	85 c0 	test	eax, eax
  40281a:	0f 85 fc 00 00 00 	jne	252 <.text+0x191C>
  402820:	eb 03 	jmp	3 <.text+0x1825>
  402822:	8b 7d f4 	mov	edi, dword ptr [ebp - 12]
  402825:	8b 43 0c 	mov	eax, dword ptr [ebx + 12]
  402828:	85 c0 	test	eax, eax
  40282a:	0f 84 ec 00 00 00 	je	236 <.text+0x191C>
  402830:	ff 76 30 	push	dword ptr [esi + 48]
  402833:	03 c7 	add	eax, edi
  402835:	50 	push	eax
  402836:	ff 56 24 	call	dword ptr [esi + 36]
  402839:	59 	pop	ecx
  40283a:	89 45 fc 	mov	dword ptr [ebp - 4], eax
  40283d:	85 c0 	test	eax, eax
  40283f:	59 	pop	ecx
  402840:	0f 84 a6 00 00 00 	je	166 <.text+0x18EC>
  402846:	8b 46 0c 	mov	eax, dword ptr [esi + 12]
  402849:	8d 04 85 04 00 00 00 	lea	eax, [4*eax + 4]
  402850:	50 	push	eax
  402851:	ff 76 08 	push	dword ptr [esi + 8]
  402854:	ff 15 08 81 40 00 	call	dword ptr [4227336]
  40285a:	59 	pop	ecx
  40285b:	85 c0 	test	eax, eax
  40285d:	59 	pop	ecx
  40285e:	0f 84 8c 00 00 00 	je	140 <.text+0x18F0>
  402864:	8b 4e 0c 	mov	ecx, dword ptr [esi + 12]
  402867:	8b 55 fc 	mov	edx, dword ptr [ebp - 4]
  40286a:	89 46 08 	mov	dword ptr [esi + 8], eax
  40286d:	89 14 88 	mov	dword ptr [eax + 4*ecx], edx
  402870:	ff 46 0c 	inc	dword ptr [esi + 12]
  402873:	8b 03 	mov	eax, dword ptr [ebx]
  402875:	85 c0 	test	eax, eax
  402877:	74 0d 	je	13 <.text+0x1886>
  402879:	03 c7 	add	eax, edi
  40287b:	8b 7b 10 	mov	edi, dword ptr [ebx + 16]
  40287e:	03 7d f4 	add	edi, dword ptr [ebp - 12]
  402881:	89 45 08 	mov	dword ptr [ebp + 8], eax
  402884:	eb 08 	jmp	8 <.text+0x188E>
  402886:	8b 43 10 	mov	eax, dword ptr [ebx + 16]
  402889:	03 f8 	add	edi, eax
  40288b:	89 7d 08 	mov	dword ptr [ebp + 8], edi
  40288e:	8b 45 08 	mov	eax, dword ptr [ebp + 8]
  402891:	8b 00 	mov	eax, dword ptr [eax]
  402893:	85 c0 	test	eax, eax
  402895:	74 39 	je	57 <.text+0x18D0>
  402897:	a9 00 00 00 80 	test	eax, 2147483648
  40289c:	74 0a 	je	10 <.text+0x18A8>
  40289e:	ff 76 30 	push	dword ptr [esi + 48]
  4028a1:	25 ff ff 00 00 	and	eax, 65535
  4028a6:	eb 0b 	jmp	11 <.text+0x18B3>
  4028a8:	8b 4d f4 	mov	ecx, dword ptr [ebp - 12]
  4028ab:	ff 76 30 	push	dword ptr [esi + 48]
  4028ae:	03 c1 	add	eax, ecx
  4028b0:	83 c0 02 	add	eax, 2
  4028b3:	50 	push	eax
  4028b4:	ff 75 fc 	push	dword ptr [ebp - 4]
  4028b7:	ff 56 28 	call	dword ptr [esi + 40]
  4028ba:	83 c4 0c 	add	esp, 12
  4028bd:	89 07 	mov	dword ptr [edi], eax
  4028bf:	85 c0 	test	eax, eax
  4028c1:	74 09 	je	9 <.text+0x18CC>
  4028c3:	83 45 08 04 	add	dword ptr [ebp + 8], 4
  4028c7:	83 c7 04 	add	edi, 4
  4028ca:	eb c2 	jmp	-62 <.text+0x188E>
  4028cc:	83 65 f8 00 	and	dword ptr [ebp - 8], 0
  4028d0:	83 7d f8 00 	cmp	dword ptr [ebp - 8], 0
  4028d4:	74 33 	je	51 <.text+0x1909>
  4028d6:	83 c3 14 	add	ebx, 20
  4028d9:	6a 14 	push	20
  4028db:	53 	push	ebx
  4028dc:	ff 15 b0 80 40 00 	call	dword ptr [4227248]
  4028e2:	85 c0 	test	eax, eax
  4028e4:	0f 84 38 ff ff ff 	je	-200 <.text+0x1822>
  4028ea:	eb 30 	jmp	48 <.text+0x191C>
  4028ec:	6a 7e 	push	126
  4028ee:	eb 0d 	jmp	13 <.text+0x18FD>
  4028f0:	ff 76 30 	push	dword ptr [esi + 48]
  4028f3:	ff 75 fc 	push	dword ptr [ebp - 4]
  4028f6:	ff 56 2c 	call	dword ptr [esi + 44]
  4028f9:	59 	pop	ecx
  4028fa:	59 	pop	ecx
  4028fb:	6a 0e 	push	14
  4028fd:	ff 15 a8 80 40 00 	call	dword ptr [4227240]
  402903:	83 65 f8 00 	and	dword ptr [ebp - 8], 0
  402907:	eb 13 	jmp	19 <.text+0x191C>
  402909:	ff 76 30 	push	dword ptr [esi + 48]
  40290c:	ff 75 fc 	push	dword ptr [ebp - 4]
  40290f:	ff 56 2c 	call	dword ptr [esi + 44]
  402912:	59 	pop	ecx
  402913:	59 	pop	ecx
  402914:	6a 7f 	push	127
  402916:	ff 15 a8 80 40 00 	call	dword ptr [4227240]
  40291c:	8b 45 f8 	mov	eax, dword ptr [ebp - 8]
  40291f:	5b 	pop	ebx
  402920:	5f 	pop	edi
  402921:	5e 	pop	esi
  402922:	c9 	leave
  402923:	c3 	ret
  402924:	55 	push	ebp
  402925:	8b ec 	mov	ebp, esp
  402927:	51 	push	ecx
  402928:	8b 45 08 	mov	eax, dword ptr [ebp + 8]
  40292b:	33 d2 	xor	edx, edx
  40292d:	53 	push	ebx
  40292e:	56 	push	esi
  40292f:	8b 48 04 	mov	ecx, dword ptr [eax + 4]
  402932:	8b 00 	mov	eax, dword ptr [eax]
  402934:	83 c0 78 	add	eax, 120
  402937:	57 	push	edi
  402938:	89 4d fc 	mov	dword ptr [ebp - 4], ecx
  40293b:	39 50 04 	cmp	dword ptr [eax + 4], edx
  40293e:	74 65 	je	101 <.text+0x19A5>
  402940:	8b 30 	mov	esi, dword ptr [eax]
  402942:	8b 44 0e 18 	mov	eax, dword ptr [esi + ecx + 24]
  402946:	03 f1 	add	esi, ecx
  402948:	3b c2 	cmp	eax, edx
  40294a:	74 59 	je	89 <.text+0x19A5>
  40294c:	39 56 14 	cmp	dword ptr [esi + 20], edx
  40294f:	74 54 	je	84 <.text+0x19A5>
  402951:	8b 7d 0c 	mov	edi, dword ptr [ebp + 12]
  402954:	c1 ef 10 	shr	edi, 16
  402957:	66 85 ff 	test	di, di
  40295a:	75 0f 	jne	15 <.text+0x196B>
  40295c:	0f b7 45 0c 	movzx	eax, word ptr [ebp + 12]
  402960:	8b 56 10 	mov	edx, dword ptr [esi + 16]
  402963:	3b c2 	cmp	eax, edx
  402965:	72 3e 	jb	62 <.text+0x19A5>
  402967:	2b c2 	sub	eax, edx
  402969:	eb 4f 	jmp	79 <.text+0x19BA>
  40296b:	8b 7e 20 	mov	edi, dword ptr [esi + 32]
  40296e:	8b 5e 24 	mov	ebx, dword ptr [esi + 36]
  402971:	03 f9 	add	edi, ecx
  402973:	03 d9 	add	ebx, ecx
  402975:	3b c2 	cmp	eax, edx
  402977:	89 55 08 	mov	dword ptr [ebp + 8], edx
  40297a:	76 29 	jbe	41 <.text+0x19A5>
  40297c:	eb 03 	jmp	3 <.text+0x1981>
  40297e:	8b 4d fc 	mov	ecx, dword ptr [ebp - 4]
  402981:	8b 07 	mov	eax, dword ptr [edi]
  402983:	03 c1 	add	eax, ecx
  402985:	50 	push	eax
  402986:	ff 75 0c 	push	dword ptr [ebp + 12]
  402989:	ff 15 70 81 40 00 	call	dword ptr [4227440]
  40298f:	59 	pop	ecx
  402990:	85 c0 	test	eax, eax
  402992:	59 	pop	ecx
  402993:	74 1f 	je	31 <.text+0x19B4>
  402995:	ff 45 08 	inc	dword ptr [ebp + 8]
  402998:	83 c7 04 	add	edi, 4
  40299b:	8b 45 08 	mov	eax, dword ptr [ebp + 8]
  40299e:	43 	inc	ebx
  40299f:	43 	inc	ebx
  4029a0:	3b 46 18 	cmp	eax, dword ptr [esi + 24]
  4029a3:	72 d9 	jb	-39 <.text+0x197E>
  4029a5:	6a 7f 	push	127
  4029a7:	ff 15 a8 80 40 00 	call	dword ptr [4227240]
  4029ad:	33 c0 	xor	eax, eax
  4029af:	5f 	pop	edi
  4029b0:	5e 	pop	esi
  4029b1:	5b 	pop	ebx
  4029b2:	c9 	leave
  4029b3:	c3 	ret
  4029b4:	0f b7 03 	movzx	eax, word ptr [ebx]
  4029b7:	8b 4d fc 	mov	ecx, dword ptr [ebp - 4]
  4029ba:	3b 46 14 	cmp	eax, dword ptr [esi + 20]
  4029bd:	77 e6 	ja	-26 <.text+0x19A5>
  4029bf:	8b 56 1c 	mov	edx, dword ptr [esi + 28]
  4029c2:	8d 04 82 	lea	eax, [edx + 4*eax]
  4029c5:	8b 04 08 	mov	eax, dword ptr [eax + ecx]
  4029c8:	03 c1 	add	eax, ecx
  4029ca:	eb e3 	jmp	-29 <.text+0x19AF>
  4029cc:	53 	push	ebx
  4029cd:	56 	push	esi
  4029ce:	8b 74 24 0c 	mov	esi, dword ptr [esp + 12]
  4029d2:	33 db 	xor	ebx, ebx
  4029d4:	3b f3 	cmp	esi, ebx
  4029d6:	74 6b 	je	107 <.text+0x1A43>
  4029d8:	39 5e 10 	cmp	dword ptr [esi + 16], ebx
  4029db:	74 0f 	je	15 <.text+0x19EC>
  4029dd:	8b 0e 	mov	ecx, dword ptr [esi]
  4029df:	8b 46 04 	mov	eax, dword ptr [esi + 4]
  4029e2:	53 	push	ebx
  4029e3:	53 	push	ebx
  4029e4:	8b 49 28 	mov	ecx, dword ptr [ecx + 40]
  4029e7:	50 	push	eax
  4029e8:	03 c8 	add	ecx, eax
  4029ea:	ff d1 	call	ecx
  4029ec:	39 5e 08 	cmp	dword ptr [esi + 8], ebx
  4029ef:	74 2c 	je	44 <.text+0x1A1D>
  4029f1:	57 	push	edi
  4029f2:	33 ff 	xor	edi, edi
  4029f4:	39 5e 0c 	cmp	dword ptr [esi + 12], ebx
  4029f7:	7e 19 	jle	25 <.text+0x1A12>
  4029f9:	8b 46 08 	mov	eax, dword ptr [esi + 8]
  4029fc:	8b 04 b8 	mov	eax, dword ptr [eax + 4*edi]
  4029ff:	3b c3 	cmp	eax, ebx
  402a01:	74 09 	je	9 <.text+0x1A0C>
  402a03:	ff 76 30 	push	dword ptr [esi + 48]
  402a06:	50 	push	eax
  402a07:	ff 56 2c 	call	dword ptr [esi + 44]
  402a0a:	59 	pop	ecx
  402a0b:	59 	pop	ecx
  402a0c:	47 	inc	edi
  402a0d:	3b 7e 0c 	cmp	edi, dword ptr [esi + 12]
  402a10:	7c e7 	jl	-25 <.text+0x19F9>
  402a12:	ff 76 08 	push	dword ptr [esi + 8]
  402a15:	ff 15 74 81 40 00 	call	dword ptr [4227444]
  402a1b:	59 	pop	ecx
  402a1c:	5f 	pop	edi
  402a1d:	8b 46 04 	mov	eax, dword ptr [esi + 4]
  402a20:	3b c3 	cmp	eax, ebx
  402a22:	74 10 	je	16 <.text+0x1A34>
  402a24:	ff 76 30 	push	dword ptr [esi + 48]
  402a27:	68 00 80 00 00 	push	32768
  402a2c:	53 	push	ebx
  402a2d:	50 	push	eax
  402a2e:	ff 56 20 	call	dword ptr [esi + 32]
  402a31:	83 c4 10 	add	esp, 16
  402a34:	56 	push	esi
  402a35:	53 	push	ebx
  402a36:	ff 15 a0 80 40 00 	call	dword ptr [4227232]
  402a3c:	50 	push	eax
  402a3d:	ff 15 b4 80 40 00 	call	dword ptr [4227252]
  402a43:	5e 	pop	esi
  402a44:	5b 	pop	ebx
  402a45:	c3 	ret
  402a46:	8b c1 	mov	eax, ecx
  402a48:	80 60 04 00 	and	byte ptr [eax + 4], 0
  402a4c:	c7 00 7c bc 40 00 	mov	dword ptr [eax], 4242556
  402a52:	c3 	ret
  402a53:	56 	push	esi
  402a54:	8b f1 	mov	esi, ecx
  402a56:	e8 14 00 00 00 	call	20 <.text+0x1A6F>
  402a5b:	f6 44 24 08 01 	test	byte ptr [esp + 8], 1
  402a60:	74 07 	je	7 <.text+0x1A69>
  402a62:	56 	push	esi
  402a63:	e8 80 4c 00 00 	call	19584 <.text+0x66E8>
  402a68:	59 	pop	ecx
  402a69:	8b c6 	mov	eax, esi
  402a6b:	5e 	pop	esi
  402a6c:	c2 04 00 	ret	4
  402a6f:	c7 01 7c bc 40 00 	mov	dword ptr [ecx], 4242556
  402a75:	c3 	ret
  402a76:	55 	push	ebp
  402a77:	8b ec 	mov	ebp, esp
  402a79:	83 ec 14 	sub	esp, 20
  402a7c:	83 7d 08 00 	cmp	dword ptr [ebp + 8], 0
  402a80:	53 	push	ebx
  402a81:	56 	push	esi
  402a82:	57 	push	edi
  402a83:	8b f1 	mov	esi, ecx
  402a85:	75 22 	jne	34 <.text+0x1AA9>
  402a87:	8d 45 0c 	lea	eax, [ebp + 12]
  402a8a:	8d 4d ec 	lea	ecx, [ebp - 20]
  402a8d:	50 	push	eax
  402a8e:	c7 45 0c 7c f5 40 00 	mov	dword ptr [ebp + 12], 4257148
  402a95:	ff 15 84 81 40 00 	call	dword ptr [4227460]
  402a9b:	8d 45 ec 	lea	eax, [ebp - 20]
  402a9e:	68 70 d5 40 00 	push	4248944
  402aa3:	50 	push	eax
  402aa4:	e8 c5 4c 00 00 	call	19653 <.text+0x676E>
  402aa9:	8b 4d 10 	mov	ecx, dword ptr [ebp + 16]
  402aac:	6a 18 	push	24
  402aae:	5b 	pop	ebx
  402aaf:	6a 10 	push	16
  402ab1:	5f 	pop	edi
  402ab2:	3b cf 	cmp	ecx, edi
  402ab4:	74 2b 	je	43 <.text+0x1AE1>
  402ab6:	3b cb 	cmp	ecx, ebx
  402ab8:	74 27 	je	39 <.text+0x1AE1>
  402aba:	83 f9 20 	cmp	ecx, 32
  402abd:	74 22 	je	34 <.text+0x1AE1>
  402abf:	8d 45 0c 	lea	eax, [ebp + 12]
  402ac2:	8d 4d ec 	lea	ecx, [ebp - 20]
  402ac5:	50 	push	eax
  402ac6:	c7 45 0c 7c f5 40 00 	mov	dword ptr [ebp + 12], 4257148
  402acd:	ff 15 84 81 40 00 	call	dword ptr [4227460]
  402ad3:	8d 45 ec 	lea	eax, [ebp - 20]
  402ad6:	68 70 d5 40 00 	push	4248944
  402adb:	50 	push	eax
  402adc:	e8 8d 4c 00 00 	call	19597 <.text+0x676E>
  402ae1:	8b 45 14 	mov	eax, dword ptr [ebp + 20]
  402ae4:	3b c7 	cmp	eax, edi
  402ae6:	74 2b 	je	43 <.text+0x1B13>
  402ae8:	3b c3 	cmp	eax, ebx
  402aea:	74 27 	je	39 <.text+0x1B13>
  402aec:	83 f8 20 	cmp	eax, 32
  402aef:	74 22 	je	34 <.text+0x1B13>
  402af1:	8d 45 0c 	lea	eax, [ebp + 12]
  402af4:	8d 4d ec 	lea	ecx, [ebp - 20]
  402af7:	50 	push	eax
  402af8:	c7 45 0c 7c f5 40 00 	mov	dword ptr [ebp + 12], 4257148
  402aff:	ff 15 84 81 40 00 	call	dword ptr [4227460]
  402b05:	8d 45 ec 	lea	eax, [ebp - 20]
  402b08:	68 70 d5 40 00 	push	4248944
  402b0d:	50 	push	eax
  402b0e:	e8 5b 4c 00 00 	call	19547 <.text+0x676E>
  402b13:	50 	push	eax
  402b14:	89 86 cc 03 00 00 	mov	dword ptr [esi + 972], eax
  402b1a:	ff 75 0c 	push	dword ptr [ebp + 12]
  402b1d:	8d 86 d0 03 00 00 	lea	eax, [esi + 976]
  402b23:	89 8e c8 03 00 00 	mov	dword ptr [esi + 968], ecx
  402b29:	50 	push	eax
  402b2a:	e8 d7 4b 00 00 	call	19415 <.text+0x6706>
  402b2f:	ff b6 cc 03 00 00 	push	dword ptr [esi + 972]
  402b35:	8d 86 f0 03 00 00 	lea	eax, [esi + 1008]
  402b3b:	ff 75 0c 	push	dword ptr [ebp + 12]
  402b3e:	50 	push	eax
  402b3f:	e8 c2 4b 00 00 	call	19394 <.text+0x6706>
  402b44:	8b 86 c8 03 00 00 	mov	eax, dword ptr [esi + 968]
  402b4a:	83 c4 18 	add	esp, 24
  402b4d:	3b c7 	cmp	eax, edi
  402b4f:	74 24 	je	36 <.text+0x1B75>
  402b51:	3b c3 	cmp	eax, ebx
  402b53:	74 0c 	je	12 <.text+0x1B61>
  402b55:	c7 86 10 04 00 00 0e 00 00 00 	mov	dword ptr [esi + 1040], 14
  402b5f:	eb 39 	jmp	57 <.text+0x1B9A>
  402b61:	33 c0 	xor	eax, eax
  402b63:	83 be cc 03 00 00 20 	cmp	dword ptr [esi + 972], 32
  402b6a:	0f 94 c0 	sete	al
  402b6d:	48 	dec	eax
  402b6e:	24 fe 	and	al, -2
  402b70:	83 c0 0e 	add	eax, 14
  402b73:	eb 1f 	jmp	31 <.text+0x1B94>
  402b75:	8b 86 cc 03 00 00 	mov	eax, dword ptr [esi + 972]
  402b7b:	3b c7 	cmp	eax, edi
  402b7d:	75 05 	jne	5 <.text+0x1B84>
  402b7f:	6a 0a 	push	10
  402b81:	58 	pop	eax
  402b82:	eb 10 	jmp	16 <.text+0x1B94>
  402b84:	33 c9 	xor	ecx, ecx
  402b86:	3b c3 	cmp	eax, ebx
  402b88:	0f 95 c1 	setne	cl
  402b8b:	49 	dec	ecx
  402b8c:	83 e1 fe 	and	ecx, -2
  402b8f:	83 c1 0e 	add	ecx, 14
  402b92:	8b c1 	mov	eax, ecx
  402b94:	89 86 10 04 00 00 	mov	dword ptr [esi + 1040], eax
  402b9a:	8b 86 cc 03 00 00 	mov	eax, dword ptr [esi + 972]
  402ba0:	6a 04 	push	4
  402ba2:	99 	cdq
  402ba3:	59 	pop	ecx
  402ba4:	f7 f9 	idiv	ecx
  402ba6:	33 d2 	xor	edx, edx
  402ba8:	39 96 10 04 00 00 	cmp	dword ptr [esi + 1040], edx
  402bae:	89 45 10 	mov	dword ptr [ebp + 16], eax
  402bb1:	7c 1c 	jl	28 <.text+0x1BCF>
  402bb3:	8d 5e 08 	lea	ebx, [esi + 8]
  402bb6:	8b 4d 10 	mov	ecx, dword ptr [ebp + 16]
  402bb9:	85 c9 	test	ecx, ecx
  402bbb:	7e 06 	jle	6 <.text+0x1BC3>
  402bbd:	33 c0 	xor	eax, eax
  402bbf:	8b fb 	mov	edi, ebx
  402bc1:	f3 	rep
  402bc2:	ab 	stosd	dword ptr es:[edi], eax
  402bc3:	42 	inc	edx
  402bc4:	83 c3 20 	add	ebx, 32
  402bc7:	3b 96 10 04 00 00 	cmp	edx, dword ptr [esi + 1040]
  402bcd:	7e e7 	jle	-25 <.text+0x1BB6>
  402bcf:	33 d2 	xor	edx, edx
  402bd1:	39 96 10 04 00 00 	cmp	dword ptr [esi + 1040], edx
  402bd7:	7c 1f 	jl	31 <.text+0x1BF8>
  402bd9:	8d 9e e8 01 00 00 	lea	ebx, [esi + 488]
  402bdf:	8b 4d 10 	mov	ecx, dword ptr [ebp + 16]
  402be2:	85 c9 	test	ecx, ecx
  402be4:	7e 06 	jle	6 <.text+0x1BEC>
  402be6:	33 c0 	xor	eax, eax
  402be8:	8b fb 	mov	edi, ebx
  402bea:	f3 	rep
  402beb:	ab 	stosd	dword ptr es:[edi], eax
  402bec:	42 	inc	edx
  402bed:	83 c3 20 	add	ebx, 32
  402bf0:	3b 96 10 04 00 00 	cmp	edx, dword ptr [esi + 1040]
  402bf6:	7e e7 	jle	-25 <.text+0x1BDF>
  402bf8:	8b 86 c8 03 00 00 	mov	eax, dword ptr [esi + 968]
  402bfe:	6a 04 	push	4
  402c00:	99 	cdq
  402c01:	59 	pop	ecx
  402c02:	8b be 10 04 00 00 	mov	edi, dword ptr [esi + 1040]
  402c08:	f7 f9 	idiv	ecx
  402c0a:	47 	inc	edi
  402c0b:	8b 4d 08 	mov	ecx, dword ptr [ebp + 8]
  402c0e:	0f af 7d 10 	imul	edi, dword ptr [ebp + 16]
  402c12:	89 7d f8 	mov	dword ptr [ebp - 8], edi
  402c15:	8b d0 	mov	edx, eax
  402c17:	8d 86 14 04 00 00 	lea	eax, [esi + 1044]
  402c1d:	85 d2 	test	edx, edx
  402c1f:	89 55 fc 	mov	dword ptr [ebp - 4], edx
  402c22:	7e 2a 	jle	42 <.text+0x1C4E>
  402c24:	89 55 0c 	mov	dword ptr [ebp + 12], edx
  402c27:	0f b6 19 	movzx	ebx, byte ptr [ecx]
  402c2a:	c1 e3 18 	shl	ebx, 24
  402c2d:	41 	inc	ecx
  402c2e:	89 18 	mov	dword ptr [eax], ebx
  402c30:	0f b6 19 	movzx	ebx, byte ptr [ecx]
  402c33:	c1 e3 10 	shl	ebx, 16
  402c36:	09 18 	or	dword ptr [eax], ebx
  402c38:	41 	inc	ecx
  402c39:	33 db 	xor	ebx, ebx
  402c3b:	8a 39 	mov	bh, byte ptr [ecx]
  402c3d:	09 18 	or	dword ptr [eax], ebx
  402c3f:	41 	inc	ecx
  402c40:	0f b6 19 	movzx	ebx, byte ptr [ecx]
  402c43:	09 18 	or	dword ptr [eax], ebx
  402c45:	41 	inc	ecx
  402c46:	83 c0 04 	add	eax, 4
  402c49:	ff 4d 0c 	dec	dword ptr [ebp + 12]
  402c4c:	75 d9 	jne	-39 <.text+0x1C27>
  402c4e:	83 65 0c 00 	and	dword ptr [ebp + 12], 0
  402c52:	85 d2 	test	edx, edx
  402c54:	7e 4f 	jle	79 <.text+0x1CA5>
  402c56:	8d 8e 14 04 00 00 	lea	ecx, [esi + 1044]
  402c5c:	39 7d 0c 	cmp	dword ptr [ebp + 12], edi
  402c5f:	0f 8d 9f 01 00 00 	jge	415 <.text+0x1E04>
  402c65:	8b 45 0c 	mov	eax, dword ptr [ebp + 12]
  402c68:	8b 19 	mov	ebx, dword ptr [ecx]
  402c6a:	99 	cdq
  402c6b:	f7 7d 10 	idiv	dword ptr [ebp + 16]
  402c6e:	89 45 08 	mov	dword ptr [ebp + 8], eax
  402c71:	8b 45 0c 	mov	eax, dword ptr [ebp + 12]
  402c74:	99 	cdq
  402c75:	f7 7d 10 	idiv	dword ptr [ebp + 16]
  402c78:	8b 45 08 	mov	eax, dword ptr [ebp + 8]
  402c7b:	8d 04 c2 	lea	eax, [edx + 8*eax]
  402c7e:	89 5c 86 08 	mov	dword ptr [esi + 4*eax + 8], ebx
  402c82:	8b 86 10 04 00 00 	mov	eax, dword ptr [esi + 1040]
  402c88:	2b 45 08 	sub	eax, dword ptr [ebp + 8]
  402c8b:	ff 45 0c 	inc	dword ptr [ebp + 12]
  402c8e:	8d 04 c2 	lea	eax, [edx + 8*eax]
  402c91:	8b 11 	mov	edx, dword ptr [ecx]
  402c93:	83 c1 04 	add	ecx, 4
  402c96:	89 94 86 e8 01 00 00 	mov	dword ptr [esi + 4*eax + 488], edx
  402c9d:	8b 55 fc 	mov	edx, dword ptr [ebp - 4]
  402ca0:	39 55 0c 	cmp	dword ptr [ebp + 12], edx
  402ca3:	7c b7 	jl	-73 <.text+0x1C5C>
  402ca5:	39 7d 0c 	cmp	dword ptr [ebp + 12], edi
  402ca8:	0f 8d 56 01 00 00 	jge	342 <.text+0x1E04>
  402cae:	c7 45 14 fc bb 40 00 	mov	dword ptr [ebp + 20], 4242428
  402cb5:	8b 84 96 10 04 00 00 	mov	eax, dword ptr [esi + 4*edx + 1040]
  402cbc:	8b 5d 14 	mov	ebx, dword ptr [ebp + 20]
  402cbf:	89 45 08 	mov	dword ptr [ebp + 8], eax
  402cc2:	33 c9 	xor	ecx, ecx
  402cc4:	8a 4d 0a 	mov	cl, byte ptr [ebp + 10]
  402cc7:	0f be 1b 	movsx	ebx, byte ptr [ebx]
  402cca:	0f be 89 fc 89 40 00 	movsx	ecx, byte ptr [ecx + 4229628]
  402cd1:	33 cb 	xor	ecx, ebx
  402cd3:	33 db 	xor	ebx, ebx
  402cd5:	8a dc 	mov	bl, ah
  402cd7:	25 ff 00 00 00 	and	eax, 255
  402cdc:	c1 e1 08 	shl	ecx, 8
  402cdf:	0f b6 9b fc 89 40 00 	movzx	ebx, byte ptr [ebx + 4229628]
  402ce6:	0f b6 80 fc 89 40 00 	movzx	eax, byte ptr [eax + 4229628]
  402ced:	33 cb 	xor	ecx, ebx
  402cef:	c1 e1 08 	shl	ecx, 8
  402cf2:	33 c8 	xor	ecx, eax
  402cf4:	33 c0 	xor	eax, eax
  402cf6:	8a 45 0b 	mov	al, byte ptr [ebp + 11]
  402cf9:	c1 e1 08 	shl	ecx, 8
  402cfc:	0f b6 80 fc 89 40 00 	movzx	eax, byte ptr [eax + 4229628]
  402d03:	33 c8 	xor	ecx, eax
  402d05:	31 8e 14 04 00 00 	xor	dword ptr [esi + 1044], ecx
  402d0b:	ff 45 14 	inc	dword ptr [ebp + 20]
  402d0e:	83 fa 08 	cmp	edx, 8
  402d11:	74 1f 	je	31 <.text+0x1D32>
  402d13:	83 fa 01 	cmp	edx, 1
  402d16:	0f 8e 8b 00 00 00 	jle	139 <.text+0x1DA7>
  402d1c:	8d 86 18 04 00 00 	lea	eax, [esi + 1048]
  402d22:	8d 4a ff 	lea	ecx, [edx - 1]
  402d25:	8b 58 fc 	mov	ebx, dword ptr [eax - 4]
  402d28:	31 18 	xor	dword ptr [eax], ebx
  402d2a:	83 c0 04 	add	eax, 4
  402d2d:	49 	dec	ecx
  402d2e:	75 f5 	jne	-11 <.text+0x1D25>
  402d30:	eb 75 	jmp	117 <.text+0x1DA7>
  402d32:	6a 03 	push	3
  402d34:	8d 86 18 04 00 00 	lea	eax, [esi + 1048]
  402d3a:	59 	pop	ecx
  402d3b:	8b 58 fc 	mov	ebx, dword ptr [eax - 4]
  402d3e:	31 18 	xor	dword ptr [eax], ebx
  402d40:	83 c0 04 	add	eax, 4
  402d43:	49 	dec	ecx
  402d44:	75 f5 	jne	-11 <.text+0x1D3B>
  402d46:	8b 86 20 04 00 00 	mov	eax, dword ptr [esi + 1056]
  402d4c:	33 c9 	xor	ecx, ecx
  402d4e:	89 45 08 	mov	dword ptr [ebp + 8], eax
  402d51:	33 db 	xor	ebx, ebx
  402d53:	8a 4d 0b 	mov	cl, byte ptr [ebp + 11]
  402d56:	8a 5d 0a 	mov	bl, byte ptr [ebp + 10]
  402d59:	6a 03 	push	3
  402d5b:	0f be 89 fc 89 40 00 	movsx	ecx, byte ptr [ecx + 4229628]
  402d62:	0f b6 9b fc 89 40 00 	movzx	ebx, byte ptr [ebx + 4229628]
  402d69:	c1 e1 08 	shl	ecx, 8
  402d6c:	33 cb 	xor	ecx, ebx
  402d6e:	33 db 	xor	ebx, ebx
  402d70:	8a dc 	mov	bl, ah
  402d72:	25 ff 00 00 00 	and	eax, 255
  402d77:	c1 e1 08 	shl	ecx, 8
  402d7a:	0f b6 9b fc 89 40 00 	movzx	ebx, byte ptr [ebx + 4229628]
  402d81:	0f b6 80 fc 89 40 00 	movzx	eax, byte ptr [eax + 4229628]
  402d88:	33 cb 	xor	ecx, ebx
  402d8a:	c1 e1 08 	shl	ecx, 8
  402d8d:	33 c8 	xor	ecx, eax
  402d8f:	8d 86 28 04 00 00 	lea	eax, [esi + 1064]
  402d95:	31 8e 24 04 00 00 	xor	dword ptr [esi + 1060], ecx
  402d9b:	59 	pop	ecx
  402d9c:	8b 58 fc 	mov	ebx, dword ptr [eax - 4]
  402d9f:	31 18 	xor	dword ptr [eax], ebx
  402da1:	83 c0 04 	add	eax, 4
  402da4:	49 	dec	ecx
  402da5:	75 f5 	jne	-11 <.text+0x1D9C>
  402da7:	83 65 08 00 	and	dword ptr [ebp + 8], 0
  402dab:	85 d2 	test	edx, edx
  402dad:	7e 4c 	jle	76 <.text+0x1DFB>
  402daf:	8d 8e 14 04 00 00 	lea	ecx, [esi + 1044]
  402db5:	39 7d 0c 	cmp	dword ptr [ebp + 12], edi
  402db8:	7d 4a 	jge	74 <.text+0x1E04>
  402dba:	8b 45 0c 	mov	eax, dword ptr [ebp + 12]
  402dbd:	8b 19 	mov	ebx, dword ptr [ecx]
  402dbf:	99 	cdq
  402dc0:	f7 7d 10 	idiv	dword ptr [ebp + 16]
  402dc3:	8b f8 	mov	edi, eax
  402dc5:	8b 45 0c 	mov	eax, dword ptr [ebp + 12]
  402dc8:	99 	cdq
  402dc9:	f7 7d 10 	idiv	dword ptr [ebp + 16]
  402dcc:	8d 04 fa 	lea	eax, [edx + 8*edi]
  402dcf:	89 5c 86 08 	mov	dword ptr [esi + 4*eax + 8], ebx
  402dd3:	8b 86 10 04 00 00 	mov	eax, dword ptr [esi + 1040]
  402dd9:	2b c7 	sub	eax, edi
  402ddb:	ff 45 08 	inc	dword ptr [ebp + 8]
  402dde:	8b 7d f8 	mov	edi, dword ptr [ebp - 8]
  402de1:	8d 04 c2 	lea	eax, [edx + 8*eax]
  402de4:	8b 11 	mov	edx, dword ptr [ecx]
  402de6:	83 c1 04 	add	ecx, 4
  402de9:	ff 45 0c 	inc	dword ptr [ebp + 12]
  402dec:	89 94 86 e8 01 00 00 	mov	dword ptr [esi + 4*eax + 488], edx
  402df3:	8b 55 fc 	mov	edx, dword ptr [ebp - 4]
  402df6:	39 55 08 	cmp	dword ptr [ebp + 8], edx
  402df9:	7c ba 	jl	-70 <.text+0x1DB5>
  402dfb:	39 7d 0c 	cmp	dword ptr [ebp + 12], edi
  402dfe:	0f 8c b1 fe ff ff 	jl	-335 <.text+0x1CB5>
  402e04:	6a 01 	push	1
  402e06:	58 	pop	eax
  402e07:	39 86 10 04 00 00 	cmp	dword ptr [esi + 1040], eax
  402e0d:	89 45 14 	mov	dword ptr [ebp + 20], eax
  402e10:	7e 61 	jle	97 <.text+0x1E73>
  402e12:	8d 86 08 02 00 00 	lea	eax, [esi + 520]
  402e18:	89 45 0c 	mov	dword ptr [ebp + 12], eax
  402e1b:	8b 4d 10 	mov	ecx, dword ptr [ebp + 16]
  402e1e:	85 c9 	test	ecx, ecx
  402e20:	7e 3f 	jle	63 <.text+0x1E61>
  402e22:	8b 7d 0c 	mov	edi, dword ptr [ebp + 12]
  402e25:	8b 07 	mov	eax, dword ptr [edi]
  402e27:	33 d2 	xor	edx, edx
  402e29:	89 45 08 	mov	dword ptr [ebp + 8], eax
  402e2c:	33 db 	xor	ebx, ebx
  402e2e:	8a 55 0b 	mov	dl, byte ptr [ebp + 11]
  402e31:	8a 5d 0a 	mov	bl, byte ptr [ebp + 10]
  402e34:	8b 14 95 fc ab 40 00 	mov	edx, dword ptr [4*edx + 4238332]
  402e3b:	33 14 9d fc af 40 00 	xor	edx, dword ptr [4*ebx + 4239356]
  402e42:	33 db 	xor	ebx, ebx
  402e44:	8a dc 	mov	bl, ah
  402e46:	25 ff 00 00 00 	and	eax, 255
  402e4b:	33 14 9d fc b3 40 00 	xor	edx, dword ptr [4*ebx + 4240380]
  402e52:	33 14 85 fc b7 40 00 	xor	edx, dword ptr [4*eax + 4241404]
  402e59:	89 17 	mov	dword ptr [edi], edx
  402e5b:	83 c7 04 	add	edi, 4
  402e5e:	49 	dec	ecx
  402e5f:	75 c4 	jne	-60 <.text+0x1E25>
  402e61:	ff 45 14 	inc	dword ptr [ebp + 20]
  402e64:	83 45 0c 20 	add	dword ptr [ebp + 12], 32
  402e68:	8b 45 14 	mov	eax, dword ptr [ebp + 20]
  402e6b:	3b 86 10 04 00 00 	cmp	eax, dword ptr [esi + 1040]
  402e71:	7c a8 	jl	-88 <.text+0x1E1B>
  402e73:	c6 46 04 01 	mov	byte ptr [esi + 4], 1
  402e77:	5f 	pop	edi
  402e78:	5e 	pop	esi
  402e79:	5b 	pop	ebx
  402e7a:	c9 	leave
  402e7b:	c2 10 00 	ret	16
  402e7e:	55 	push	ebp
  402e7f:	8b ec 	mov	ebp, esp
  402e81:	83 ec 28 	sub	esp, 40
  402e84:	57 	push	edi
  402e85:	8b f9 	mov	edi, ecx
  402e87:	89 7d e4 	mov	dword ptr [ebp - 28], edi
  402e8a:	80 7f 04 00 	cmp	byte ptr [edi + 4], 0
  402e8e:	75 1c 	jne	28 <.text+0x1EAC>
  402e90:	68 70 f5 40 00 	push	4257136
  402e95:	8d 4d d8 	lea	ecx, [ebp - 40]
  402e98:	ff 15 84 81 40 00 	call	dword ptr [4227460]
  402e9e:	8d 45 d8 	lea	eax, [ebp - 40]
  402ea1:	68 70 d5 40 00 	push	4248944
  402ea6:	50 	push	eax
  402ea7:	e8 c2 48 00 00 	call	18626 <.text+0x676E>
  402eac:	8b 45 08 	mov	eax, dword ptr [ebp + 8]
  402eaf:	53 	push	ebx
  402eb0:	56 	push	esi
  402eb1:	33 db 	xor	ebx, ebx
  402eb3:	0f b6 10 	movzx	edx, byte ptr [eax]
  402eb6:	0f b6 48 01 	movzx	ecx, byte ptr [eax + 1]
  402eba:	c1 e2 18 	shl	edx, 24
  402ebd:	40 	inc	eax
  402ebe:	c1 e1 10 	shl	ecx, 16
  402ec1:	0b d1 	or	edx, ecx
  402ec3:	40 	inc	eax
  402ec4:	33 c9 	xor	ecx, ecx
  402ec6:	8a 28 	mov	ch, byte ptr [eax]
  402ec8:	0b d1 	or	edx, ecx
  402eca:	40 	inc	eax
  402ecb:	0f b6 08 	movzx	ecx, byte ptr [eax]
  402ece:	0f b6 70 01 	movzx	esi, byte ptr [eax + 1]
  402ed2:	0b d1 	or	edx, ecx
  402ed4:	40 	inc	eax
  402ed5:	33 57 08 	xor	edx, dword ptr [edi + 8]
  402ed8:	0f b6 48 01 	movzx	ecx, byte ptr [eax + 1]
  402edc:	c1 e6 18 	shl	esi, 24
  402edf:	40 	inc	eax
  402ee0:	89 55 f0 	mov	dword ptr [ebp - 16], edx
  402ee3:	c1 e1 10 	shl	ecx, 16
  402ee6:	0b f1 	or	esi, ecx
  402ee8:	40 	inc	eax
  402ee9:	33 c9 	xor	ecx, ecx
  402eeb:	8a 28 	mov	ch, byte ptr [eax]
  402eed:	0b f1 	or	esi, ecx
  402eef:	40 	inc	eax
  402ef0:	0f b6 08 	movzx	ecx, byte ptr [eax]
  402ef3:	0b f1 	or	esi, ecx
  402ef5:	40 	inc	eax
  402ef6:	33 77 0c 	xor	esi, dword ptr [edi + 12]
  402ef9:	0f b6 08 	movzx	ecx, byte ptr [eax]
  402efc:	c1 e1 18 	shl	ecx, 24
  402eff:	40 	inc	eax
  402f00:	89 75 f4 	mov	dword ptr [ebp - 12], esi
  402f03:	0f b6 30 	movzx	esi, byte ptr [eax]
  402f06:	8a 78 01 	mov	bh, byte ptr [eax + 1]
  402f09:	c1 e6 10 	shl	esi, 16
  402f0c:	0b ce 	or	ecx, esi
  402f0e:	40 	inc	eax
  402f0f:	0b cb 	or	ecx, ebx
  402f11:	40 	inc	eax
  402f12:	0f b6 30 	movzx	esi, byte ptr [eax]
  402f15:	0b ce 	or	ecx, esi
  402f17:	40 	inc	eax
  402f18:	33 4f 10 	xor	ecx, dword ptr [edi + 16]
  402f1b:	0f b6 30 	movzx	esi, byte ptr [eax]
  402f1e:	0f b6 58 01 	movzx	ebx, byte ptr [eax + 1]
  402f22:	c1 e6 18 	shl	esi, 24
  402f25:	40 	inc	eax
  402f26:	89 4d ec 	mov	dword ptr [ebp - 20], ecx
  402f29:	c1 e3 10 	shl	ebx, 16
  402f2c:	0b f3 	or	esi, ebx
  402f2e:	40 	inc	eax
  402f2f:	33 db 	xor	ebx, ebx
  402f31:	8a 38 	mov	bh, byte ptr [eax]
  402f33:	8a 58 01 	mov	bl, byte ptr [eax + 1]
  402f36:	8b 87 10 04 00 00 	mov	eax, dword ptr [edi + 1040]
  402f3c:	0b de 	or	ebx, esi
  402f3e:	89 45 e8 	mov	dword ptr [ebp - 24], eax
  402f41:	33 5f 14 	xor	ebx, dword ptr [edi + 20]
  402f44:	83 f8 01 	cmp	eax, 1
  402f47:	be ff 00 00 00 	mov	esi, 255
  402f4c:	89 5d f8 	mov	dword ptr [ebp - 8], ebx
  402f4f:	0f 8e 01 01 00 00 	jle	257 <.text+0x2056>
  402f55:	83 c7 30 	add	edi, 48
  402f58:	48 	dec	eax
  402f59:	89 7d 08 	mov	dword ptr [ebp + 8], edi
  402f5c:	89 45 fc 	mov	dword ptr [ebp - 4], eax
  402f5f:	33 c0 	xor	eax, eax
  402f61:	33 db 	xor	ebx, ebx
  402f63:	8a 45 f9 	mov	al, byte ptr [ebp - 7]
  402f66:	8a 5d ee 	mov	bl, byte ptr [ebp - 18]
  402f69:	8b 3c 85 fc 93 40 00 	mov	edi, dword ptr [4*eax + 4232188]
  402f70:	33 c0 	xor	eax, eax
  402f72:	33 3c 9d fc 8f 40 00 	xor	edi, dword ptr [4*ebx + 4231164]
  402f79:	8a 45 f7 	mov	al, byte ptr [ebp - 9]
  402f7c:	33 db 	xor	ebx, ebx
  402f7e:	33 3c 85 fc 8b 40 00 	xor	edi, dword ptr [4*eax + 4230140]
  402f85:	8b c2 	mov	eax, edx
  402f87:	23 c6 	and	eax, esi
  402f89:	8a 5d ef 	mov	bl, byte ptr [ebp - 17]
  402f8c:	33 3c 85 fc 97 40 00 	xor	edi, dword ptr [4*eax + 4233212]
  402f93:	8b 45 08 	mov	eax, dword ptr [ebp + 8]
  402f96:	33 78 fc 	xor	edi, dword ptr [eax - 4]
  402f99:	33 c0 	xor	eax, eax
  402f9b:	8a 45 fa 	mov	al, byte ptr [ebp - 6]
  402f9e:	8b 04 85 fc 8f 40 00 	mov	eax, dword ptr [4*eax + 4231164]
  402fa5:	33 04 9d fc 8b 40 00 	xor	eax, dword ptr [4*ebx + 4230140]
  402fac:	33 db 	xor	ebx, ebx
  402fae:	8a de 	mov	bl, dh
  402fb0:	8b 55 f4 	mov	edx, dword ptr [ebp - 12]
  402fb3:	23 d6 	and	edx, esi
  402fb5:	33 04 9d fc 93 40 00 	xor	eax, dword ptr [4*ebx + 4232188]
  402fbc:	8b 5d 08 	mov	ebx, dword ptr [ebp + 8]
  402fbf:	83 c3 20 	add	ebx, 32
  402fc2:	33 04 95 fc 97 40 00 	xor	eax, dword ptr [4*edx + 4233212]
  402fc9:	8b 55 08 	mov	edx, dword ptr [ebp + 8]
  402fcc:	89 5d 08 	mov	dword ptr [ebp + 8], ebx
  402fcf:	33 02 	xor	eax, dword ptr [edx]
  402fd1:	33 d2 	xor	edx, edx
  402fd3:	8a 55 f5 	mov	dl, byte ptr [ebp - 11]
  402fd6:	89 45 ec 	mov	dword ptr [ebp - 20], eax
  402fd9:	33 c0 	xor	eax, eax
  402fdb:	8a 45 fb 	mov	al, byte ptr [ebp - 5]
  402fde:	8b 04 85 fc 8b 40 00 	mov	eax, dword ptr [4*eax + 4230140]
  402fe5:	33 04 95 fc 93 40 00 	xor	eax, dword ptr [4*edx + 4232188]
  402fec:	33 d2 	xor	edx, edx
  402fee:	8a 55 f2 	mov	dl, byte ptr [ebp - 14]
  402ff1:	33 04 95 fc 8f 40 00 	xor	eax, dword ptr [4*edx + 4231164]
  402ff8:	8b d1 	mov	edx, ecx
  402ffa:	23 d6 	and	edx, esi
  402ffc:	33 04 95 fc 97 40 00 	xor	eax, dword ptr [4*edx + 4233212]
  403003:	33 d2 	xor	edx, edx
  403005:	8a d5 	mov	dl, ch
  403007:	33 c9 	xor	ecx, ecx
  403009:	8a 4d f6 	mov	cl, byte ptr [ebp - 10]
  40300c:	33 43 e4 	xor	eax, dword ptr [ebx - 28]
  40300f:	8b 14 95 fc 93 40 00 	mov	edx, dword ptr [4*edx + 4232188]
  403016:	89 7d f4 	mov	dword ptr [ebp - 12], edi
  403019:	33 14 8d fc 8f 40 00 	xor	edx, dword ptr [4*ecx + 4231164]
  403020:	33 c9 	xor	ecx, ecx
  403022:	8a 4d f3 	mov	cl, byte ptr [ebp - 13]
  403025:	33 14 8d fc 8b 40 00 	xor	edx, dword ptr [4*ecx + 4230140]
  40302c:	8b 4d f8 	mov	ecx, dword ptr [ebp - 8]
  40302f:	23 ce 	and	ecx, esi
  403031:	89 45 f8 	mov	dword ptr [ebp - 8], eax
  403034:	33 14 8d fc 97 40 00 	xor	edx, dword ptr [4*ecx + 4233212]
  40303b:	8b 4d ec 	mov	ecx, dword ptr [ebp - 20]
  40303e:	89 4d ec 	mov	dword ptr [ebp - 20], ecx
  403041:	33 53 d8 	xor	edx, dword ptr [ebx - 40]
  403044:	ff 4d fc 	dec	dword ptr [ebp - 4]
  403047:	89 55 f0 	mov	dword ptr [ebp - 16], edx
  40304a:	0f 85 0f ff ff ff 	jne	-241 <.text+0x1F5F>
  403050:	8b 45 e8 	mov	eax, dword ptr [ebp - 24]
  403053:	8b 7d e4 	mov	edi, dword ptr [ebp - 28]
  403056:	c1 e0 05 	shl	eax, 5
  403059:	8b 54 38 08 	mov	edx, dword ptr [eax + edi + 8]
  40305d:	8d 7c 38 08 	lea	edi, [eax + edi + 8]
  403061:	33 c0 	xor	eax, eax
  403063:	8b da 	mov	ebx, edx
  403065:	8a 45 f3 	mov	al, byte ptr [ebp - 13]
  403068:	89 55 fc 	mov	dword ptr [ebp - 4], edx
  40306b:	c1 fb 18 	sar	ebx, 24
  40306e:	8a 80 fc 89 40 00 	mov	al, byte ptr [eax + 4229628]
  403074:	32 c3 	xor	al, bl
  403076:	8a d8 	mov	bl, al
  403078:	8b 45 0c 	mov	eax, dword ptr [ebp + 12]
  40307b:	88 18 	mov	byte ptr [eax], bl
  40307d:	33 db 	xor	ebx, ebx
  40307f:	8a 5d f6 	mov	bl, byte ptr [ebp - 10]
  403082:	c1 fa 10 	sar	edx, 16
  403085:	8a 9b fc 89 40 00 	mov	bl, byte ptr [ebx + 4229628]
  40308b:	32 da 	xor	bl, dl
  40308d:	33 d2 	xor	edx, edx
  40308f:	88 58 01 	mov	byte ptr [eax + 1], bl
  403092:	8b 5d fc 	mov	ebx, dword ptr [ebp - 4]
  403095:	8a d5 	mov	dl, ch
  403097:	c1 fb 08 	sar	ebx, 8
  40309a:	8a 92 fc 89 40 00 	mov	dl, byte ptr [edx + 4229628]
  4030a0:	32 d3 	xor	dl, bl
  4030a2:	33 db 	xor	ebx, ebx
  4030a4:	88 50 02 	mov	byte ptr [eax + 2], dl
  4030a7:	8b 55 f8 	mov	edx, dword ptr [ebp - 8]
  4030aa:	23 d6 	and	edx, esi
  4030ac:	8a 5d f7 	mov	bl, byte ptr [ebp - 9]
  4030af:	8a 92 fc 89 40 00 	mov	dl, byte ptr [edx + 4229628]
  4030b5:	32 55 fc 	xor	dl, byte ptr [ebp - 4]
  4030b8:	88 50 03 	mov	byte ptr [eax + 3], dl
  4030bb:	8b 57 04 	mov	edx, dword ptr [edi + 4]
  4030be:	8a 9b fc 89 40 00 	mov	bl, byte ptr [ebx + 4229628]
  4030c4:	89 55 fc 	mov	dword ptr [ebp - 4], edx
  4030c7:	c1 fa 18 	sar	edx, 24
  4030ca:	32 da 	xor	bl, dl
  4030cc:	33 d2 	xor	edx, edx
  4030ce:	8a 55 ee 	mov	dl, byte ptr [ebp - 18]
  4030d1:	88 58 04 	mov	byte ptr [eax + 4], bl
  4030d4:	8b 5d fc 	mov	ebx, dword ptr [ebp - 4]
  4030d7:	8a 92 fc 89 40 00 	mov	dl, byte ptr [edx + 4229628]
  4030dd:	c1 fb 10 	sar	ebx, 16
  4030e0:	32 d3 	xor	dl, bl
  4030e2:	8b 5d fc 	mov	ebx, dword ptr [ebp - 4]
  4030e5:	88 50 05 	mov	byte ptr [eax + 5], dl
  4030e8:	33 d2 	xor	edx, edx
  4030ea:	8a 55 f9 	mov	dl, byte ptr [ebp - 7]
  4030ed:	c1 fb 08 	sar	ebx, 8
  4030f0:	8a 92 fc 89 40 00 	mov	dl, byte ptr [edx + 4229628]
  4030f6:	32 d3 	xor	dl, bl
  4030f8:	33 db 	xor	ebx, ebx
  4030fa:	88 50 06 	mov	byte ptr [eax + 6], dl
  4030fd:	8b 55 f0 	mov	edx, dword ptr [ebp - 16]
  403100:	23 d6 	and	edx, esi
  403102:	8a 5d ef 	mov	bl, byte ptr [ebp - 17]
  403105:	8a 92 fc 89 40 00 	mov	dl, byte ptr [edx + 4229628]
  40310b:	32 55 fc 	xor	dl, byte ptr [ebp - 4]
  40310e:	88 50 07 	mov	byte ptr [eax + 7], dl
  403111:	8b 57 08 	mov	edx, dword ptr [edi + 8]
  403114:	8a 9b fc 89 40 00 	mov	bl, byte ptr [ebx + 4229628]
  40311a:	89 55 fc 	mov	dword ptr [ebp - 4], edx
  40311d:	c1 fa 18 	sar	edx, 24
  403120:	32 da 	xor	bl, dl
  403122:	33 d2 	xor	edx, edx
  403124:	8a 55 fa 	mov	dl, byte ptr [ebp - 6]
  403127:	88 58 08 	mov	byte ptr [eax + 8], bl
  40312a:	8b 5d fc 	mov	ebx, dword ptr [ebp - 4]
  40312d:	8a 92 fc 89 40 00 	mov	dl, byte ptr [edx + 4229628]
  403133:	c1 fb 10 	sar	ebx, 16
  403136:	32 d3 	xor	dl, bl
  403138:	8b 5d fc 	mov	ebx, dword ptr [ebp - 4]
  40313b:	88 50 09 	mov	byte ptr [eax + 9], dl
  40313e:	33 d2 	xor	edx, edx
  403140:	8a 55 f1 	mov	dl, byte ptr [ebp - 15]
  403143:	c1 fb 08 	sar	ebx, 8
  403146:	8a 92 fc 89 40 00 	mov	dl, byte ptr [edx + 4229628]
  40314c:	32 d3 	xor	dl, bl
  40314e:	88 50 0a 	mov	byte ptr [eax + 10], dl
  403151:	8b 55 f4 	mov	edx, dword ptr [ebp - 12]
  403154:	23 ce 	and	ecx, esi
  403156:	23 d6 	and	edx, esi
  403158:	5e 	pop	esi
  403159:	8a 92 fc 89 40 00 	mov	dl, byte ptr [edx + 4229628]
  40315f:	32 55 fc 	xor	dl, byte ptr [ebp - 4]
  403162:	88 50 0b 	mov	byte ptr [eax + 11], dl
  403165:	8b 7f 0c 	mov	edi, dword ptr [edi + 12]
  403168:	33 d2 	xor	edx, edx
  40316a:	8b df 	mov	ebx, edi
  40316c:	8a 55 fb 	mov	dl, byte ptr [ebp - 5]
  40316f:	89 7d fc 	mov	dword ptr [ebp - 4], edi
  403172:	c1 fb 18 	sar	ebx, 24
  403175:	8a 92 fc 89 40 00 	mov	dl, byte ptr [edx + 4229628]
  40317b:	32 d3 	xor	dl, bl
  40317d:	8b df 	mov	ebx, edi
  40317f:	88 50 0c 	mov	byte ptr [eax + 12], dl
  403182:	33 d2 	xor	edx, edx
  403184:	8a 55 f2 	mov	dl, byte ptr [ebp - 14]
  403187:	c1 fb 10 	sar	ebx, 16
  40318a:	8a 92 fc 89 40 00 	mov	dl, byte ptr [edx + 4229628]
  403190:	32 d3 	xor	dl, bl
  403192:	8b df 	mov	ebx, edi
  403194:	88 50 0d 	mov	byte ptr [eax + 13], dl
  403197:	33 d2 	xor	edx, edx
  403199:	8a 55 f5 	mov	dl, byte ptr [ebp - 11]
  40319c:	c1 fb 08 	sar	ebx, 8
  40319f:	8a 92 fc 89 40 00 	mov	dl, byte ptr [edx + 4229628]
  4031a5:	32 d3 	xor	dl, bl
  4031a7:	5b 	pop	ebx
  4031a8:	88 50 0e 	mov	byte ptr [eax + 14], dl
  4031ab:	8a 89 fc 89 40 00 	mov	cl, byte ptr [ecx + 4229628]
  4031b1:	32 4d fc 	xor	cl, byte ptr [ebp - 4]
  4031b4:	5f 	pop	edi
  4031b5:	88 48 0f 	mov	byte ptr [eax + 15], cl
  4031b8:	c9 	leave
  4031b9:	c2 08 00 	ret	8
  4031bc:	55 	push	ebp
  4031bd:	8b ec 	mov	ebp, esp
  4031bf:	83 ec 2c 	sub	esp, 44
  4031c2:	57 	push	edi
  4031c3:	8b f9 	mov	edi, ecx
  4031c5:	89 7d e4 	mov	dword ptr [ebp - 28], edi
  4031c8:	80 7f 04 00 	cmp	byte ptr [edi + 4], 0
  4031cc:	75 1c 	jne	28 <.text+0x21EA>
  4031ce:	68 70 f5 40 00 	push	4257136
  4031d3:	8d 4d d4 	lea	ecx, [ebp - 44]
  4031d6:	ff 15 84 81 40 00 	call	dword ptr [4227460]
  4031dc:	8d 45 d4 	lea	eax, [ebp - 44]
  4031df:	68 70 d5 40 00 	push	4248944
  4031e4:	50 	push	eax
  4031e5:	e8 84 45 00 00 	call	17796 <.text+0x676E>
  4031ea:	8b 45 08 	mov	eax, dword ptr [ebp + 8]
  4031ed:	53 	push	ebx
  4031ee:	56 	push	esi
  4031ef:	0f b6 08 	movzx	ecx, byte ptr [eax]
  4031f2:	0f b6 50 01 	movzx	edx, byte ptr [eax + 1]
  4031f6:	c1 e1 18 	shl	ecx, 24
  4031f9:	40 	inc	eax
  4031fa:	c1 e2 10 	shl	edx, 16
  4031fd:	0b ca 	or	ecx, edx
  4031ff:	40 	inc	eax
  403200:	33 d2 	xor	edx, edx
  403202:	8a 30 	mov	dh, byte ptr [eax]
  403204:	0b ca 	or	ecx, edx
  403206:	40 	inc	eax
  403207:	0f b6 10 	movzx	edx, byte ptr [eax]
  40320a:	0f b6 70 01 	movzx	esi, byte ptr [eax + 1]
  40320e:	0b ca 	or	ecx, edx
  403210:	40 	inc	eax
  403211:	33 8f e8 01 00 00 	xor	ecx, dword ptr [edi + 488]
  403217:	0f b6 50 01 	movzx	edx, byte ptr [eax + 1]
  40321b:	c1 e6 18 	shl	esi, 24
  40321e:	40 	inc	eax
  40321f:	89 4d ec 	mov	dword ptr [ebp - 20], ecx
  403222:	c1 e2 10 	shl	edx, 16
  403225:	0b f2 	or	esi, edx
  403227:	40 	inc	eax
  403228:	33 d2 	xor	edx, edx
  40322a:	8a 30 	mov	dh, byte ptr [eax]
  40322c:	0b f2 	or	esi, edx
  40322e:	40 	inc	eax
  40322f:	0f b6 10 	movzx	edx, byte ptr [eax]
  403232:	0b f2 	or	esi, edx
  403234:	40 	inc	eax
  403235:	33 b7 ec 01 00 00 	xor	esi, dword ptr [edi + 492]
  40323b:	0f b6 50 01 	movzx	edx, byte ptr [eax + 1]
  40323f:	89 75 f0 	mov	dword ptr [ebp - 16], esi
  403242:	0f b6 30 	movzx	esi, byte ptr [eax]
  403245:	c1 e6 18 	shl	esi, 24
  403248:	40 	inc	eax
  403249:	c1 e2 10 	shl	edx, 16
  40324c:	0b f2 	or	esi, edx
  40324e:	40 	inc	eax
  40324f:	33 d2 	xor	edx, edx
  403251:	8a 30 	mov	dh, byte ptr [eax]
  403253:	0b f2 	or	esi, edx
  403255:	40 	inc	eax
  403256:	0f b6 10 	movzx	edx, byte ptr [eax]
  403259:	0b f2 	or	esi, edx
  40325b:	40 	inc	eax
  40325c:	33 b7 f0 01 00 00 	xor	esi, dword ptr [edi + 496]
  403262:	0f b6 50 01 	movzx	edx, byte ptr [eax + 1]
  403266:	89 75 f4 	mov	dword ptr [ebp - 12], esi
  403269:	0f b6 30 	movzx	esi, byte ptr [eax]
  40326c:	c1 e6 18 	shl	esi, 24
  40326f:	40 	inc	eax
  403270:	c1 e2 10 	shl	edx, 16
  403273:	0b f2 	or	esi, edx
  403275:	40 	inc	eax
  403276:	33 d2 	xor	edx, edx
  403278:	8a 30 	mov	dh, byte ptr [eax]
  40327a:	8a 50 01 	mov	dl, byte ptr [eax + 1]
  40327d:	8b 87 10 04 00 00 	mov	eax, dword ptr [edi + 1040]
  403283:	0b d6 	or	edx, esi
  403285:	89 45 e0 	mov	dword ptr [ebp - 32], eax
  403288:	33 97 f4 01 00 00 	xor	edx, dword ptr [edi + 500]
  40328e:	83 f8 01 	cmp	eax, 1
  403291:	be ff 00 00 00 	mov	esi, 255
  403296:	89 55 f8 	mov	dword ptr [ebp - 8], edx
  403299:	0f 8e 04 01 00 00 	jle	260 <.text+0x23A3>
  40329f:	8d 97 10 02 00 00 	lea	edx, [edi + 528]
  4032a5:	48 	dec	eax
  4032a6:	89 55 08 	mov	dword ptr [ebp + 8], edx
  4032a9:	89 45 fc 	mov	dword ptr [ebp - 4], eax
  4032ac:	33 c0 	xor	eax, eax
  4032ae:	33 db 	xor	ebx, ebx
  4032b0:	8a 45 f9 	mov	al, byte ptr [ebp - 7]
  4032b3:	8a 5d f3 	mov	bl, byte ptr [ebp - 13]
  4032b6:	8b 3c 85 fc a3 40 00 	mov	edi, dword ptr [4*eax + 4236284]
  4032bd:	33 c0 	xor	eax, eax
  4032bf:	33 3c 9d fc 9b 40 00 	xor	edi, dword ptr [4*ebx + 4234236]
  4032c6:	8a 45 ee 	mov	al, byte ptr [ebp - 18]
  4032c9:	33 db 	xor	ebx, ebx
  4032cb:	33 3c 85 fc 9f 40 00 	xor	edi, dword ptr [4*eax + 4235260]
  4032d2:	8b 45 f4 	mov	eax, dword ptr [ebp - 12]
  4032d5:	23 c6 	and	eax, esi
  4032d7:	8a 5d f2 	mov	bl, byte ptr [ebp - 14]
  4032da:	33 3c 85 fc a7 40 00 	xor	edi, dword ptr [4*eax + 4237308]
  4032e1:	33 c0 	xor	eax, eax
  4032e3:	8a 45 f7 	mov	al, byte ptr [ebp - 9]
  4032e6:	33 7a fc 	xor	edi, dword ptr [edx - 4]
  4032e9:	8b 04 85 fc 9b 40 00 	mov	eax, dword ptr [4*eax + 4234236]
  4032f0:	33 04 9d fc 9f 40 00 	xor	eax, dword ptr [4*ebx + 4235260]
  4032f7:	33 db 	xor	ebx, ebx
  4032f9:	8a dd 	mov	bl, ch
  4032fb:	23 ce 	and	ecx, esi
  4032fd:	33 04 9d fc a3 40 00 	xor	eax, dword ptr [4*ebx + 4236284]
  403304:	8b 5d f8 	mov	ebx, dword ptr [ebp - 8]
  403307:	23 de 	and	ebx, esi
  403309:	33 04 9d fc a7 40 00 	xor	eax, dword ptr [4*ebx + 4237308]
  403310:	33 db 	xor	ebx, ebx
  403312:	8a 5d f6 	mov	bl, byte ptr [ebp - 10]
  403315:	33 02 	xor	eax, dword ptr [edx]
  403317:	33 d2 	xor	edx, edx
  403319:	8a 55 fb 	mov	dl, byte ptr [ebp - 5]
  40331c:	8b 14 95 fc 9b 40 00 	mov	edx, dword ptr [4*edx + 4234236]
  403323:	33 14 9d fc 9f 40 00 	xor	edx, dword ptr [4*ebx + 4235260]
  40332a:	33 db 	xor	ebx, ebx
  40332c:	8a 5d f1 	mov	bl, byte ptr [ebp - 15]
  40332f:	89 55 e8 	mov	dword ptr [ebp - 24], edx
  403332:	33 14 9d fc a3 40 00 	xor	edx, dword ptr [4*ebx + 4236284]
  403339:	33 14 8d fc a7 40 00 	xor	edx, dword ptr [4*ecx + 4237308]
  403340:	8b 4d 08 	mov	ecx, dword ptr [ebp + 8]
  403343:	33 51 04 	xor	edx, dword ptr [ecx + 4]
  403346:	33 c9 	xor	ecx, ecx
  403348:	8a 4d fa 	mov	cl, byte ptr [ebp - 6]
  40334b:	89 55 e8 	mov	dword ptr [ebp - 24], edx
  40334e:	33 d2 	xor	edx, edx
  403350:	8a 55 f5 	mov	dl, byte ptr [ebp - 11]
  403353:	8b 0c 8d fc 9f 40 00 	mov	ecx, dword ptr [4*ecx + 4235260]
  40335a:	89 45 f4 	mov	dword ptr [ebp - 12], eax
  40335d:	8b 45 e8 	mov	eax, dword ptr [ebp - 24]
  403360:	33 0c 95 fc a3 40 00 	xor	ecx, dword ptr [4*edx + 4236284]
  403367:	33 d2 	xor	edx, edx
  403369:	8a 55 ef 	mov	dl, byte ptr [ebp - 17]
  40336c:	89 45 f8 	mov	dword ptr [ebp - 8], eax
  40336f:	33 0c 95 fc 9b 40 00 	xor	ecx, dword ptr [4*edx + 4234236]
  403376:	8b 55 f0 	mov	edx, dword ptr [ebp - 16]
  403379:	23 d6 	and	edx, esi
  40337b:	89 7d f0 	mov	dword ptr [ebp - 16], edi
  40337e:	33 0c 95 fc a7 40 00 	xor	ecx, dword ptr [4*edx + 4237308]
  403385:	8b 55 08 	mov	edx, dword ptr [ebp + 8]
  403388:	33 4a f8 	xor	ecx, dword ptr [edx - 8]
  40338b:	83 c2 20 	add	edx, 32
  40338e:	ff 4d fc 	dec	dword ptr [ebp - 4]
  403391:	89 55 08 	mov	dword ptr [ebp + 8], edx
  403394:	89 4d ec 	mov	dword ptr [ebp - 20], ecx
  403397:	0f 85 0f ff ff ff 	jne	-241 <.text+0x22AC>
  40339d:	8b 7d e4 	mov	edi, dword ptr [ebp - 28]
  4033a0:	8b 45 e0 	mov	eax, dword ptr [ebp - 32]
  4033a3:	c1 e0 05 	shl	eax, 5
  4033a6:	8b 94 38 e8 01 00 00 	mov	edx, dword ptr [eax + edi + 488]
  4033ad:	8d bc 38 e8 01 00 00 	lea	edi, [eax + edi + 488]
  4033b4:	33 c0 	xor	eax, eax
  4033b6:	8b da 	mov	ebx, edx
  4033b8:	8a 45 ef 	mov	al, byte ptr [ebp - 17]
  4033bb:	89 55 fc 	mov	dword ptr [ebp - 4], edx
  4033be:	c1 fb 18 	sar	ebx, 24
  4033c1:	8a 80 fc 8a 40 00 	mov	al, byte ptr [eax + 4229884]
  4033c7:	32 c3 	xor	al, bl
  4033c9:	8a d8 	mov	bl, al
  4033cb:	8b 45 0c 	mov	eax, dword ptr [ebp + 12]
  4033ce:	88 18 	mov	byte ptr [eax], bl
  4033d0:	33 db 	xor	ebx, ebx
  4033d2:	8a 5d fa 	mov	bl, byte ptr [ebp - 6]
  4033d5:	c1 fa 10 	sar	edx, 16
  4033d8:	8a 9b fc 8a 40 00 	mov	bl, byte ptr [ebx + 4229884]
  4033de:	32 da 	xor	bl, dl
  4033e0:	33 d2 	xor	edx, edx
  4033e2:	8a 55 f5 	mov	dl, byte ptr [ebp - 11]
  4033e5:	88 58 01 	mov	byte ptr [eax + 1], bl
  4033e8:	8b 5d fc 	mov	ebx, dword ptr [ebp - 4]
  4033eb:	8a 92 fc 8a 40 00 	mov	dl, byte ptr [edx + 4229884]
  4033f1:	c1 fb 08 	sar	ebx, 8
  4033f4:	32 d3 	xor	dl, bl
  4033f6:	33 db 	xor	ebx, ebx
  4033f8:	88 50 02 	mov	byte ptr [eax + 2], dl
  4033fb:	8b 55 f0 	mov	edx, dword ptr [ebp - 16]
  4033fe:	23 d6 	and	edx, esi
  403400:	8a 5d f3 	mov	bl, byte ptr [ebp - 13]
  403403:	8a 92 fc 8a 40 00 	mov	dl, byte ptr [edx + 4229884]
  403409:	32 55 fc 	xor	dl, byte ptr [ebp - 4]
  40340c:	88 50 03 	mov	byte ptr [eax + 3], dl
  40340f:	8b 57 04 	mov	edx, dword ptr [edi + 4]
  403412:	8a 9b fc 8a 40 00 	mov	bl, byte ptr [ebx + 4229884]
  403418:	89 55 fc 	mov	dword ptr [ebp - 4], edx
  40341b:	c1 fa 18 	sar	edx, 24
  40341e:	32 da 	xor	bl, dl
  403420:	33 d2 	xor	edx, edx
  403422:	8a 55 ee 	mov	dl, byte ptr [ebp - 18]
  403425:	88 58 04 	mov	byte ptr [eax + 4], bl
  403428:	8b 5d fc 	mov	ebx, dword ptr [ebp - 4]
  40342b:	8a 92 fc 8a 40 00 	mov	dl, byte ptr [edx + 4229884]
  403431:	c1 fb 10 	sar	ebx, 16
  403434:	32 d3 	xor	dl, bl
  403436:	8b 5d fc 	mov	ebx, dword ptr [ebp - 4]
  403439:	88 50 05 	mov	byte ptr [eax + 5], dl
  40343c:	33 d2 	xor	edx, edx
  40343e:	8a 55 f9 	mov	dl, byte ptr [ebp - 7]
  403441:	c1 fb 08 	sar	ebx, 8
  403444:	8a 92 fc 8a 40 00 	mov	dl, byte ptr [edx + 4229884]
  40344a:	32 d3 	xor	dl, bl
  40344c:	33 db 	xor	ebx, ebx
  40344e:	88 50 06 	mov	byte ptr [eax + 6], dl
  403451:	8b 55 f4 	mov	edx, dword ptr [ebp - 12]
  403454:	23 d6 	and	edx, esi
  403456:	8a 5d f7 	mov	bl, byte ptr [ebp - 9]
  403459:	8a 92 fc 8a 40 00 	mov	dl, byte ptr [edx + 4229884]
  40345f:	32 55 fc 	xor	dl, byte ptr [ebp - 4]
  403462:	88 50 07 	mov	byte ptr [eax + 7], dl
  403465:	8b 57 08 	mov	edx, dword ptr [edi + 8]
  403468:	8a 9b fc 8a 40 00 	mov	bl, byte ptr [ebx + 4229884]
  40346e:	89 55 fc 	mov	dword ptr [ebp - 4], edx
  403471:	c1 fa 18 	sar	edx, 24
  403474:	32 da 	xor	bl, dl
  403476:	33 d2 	xor	edx, edx
  403478:	8a 55 f2 	mov	dl, byte ptr [ebp - 14]
  40347b:	88 58 08 	mov	byte ptr [eax + 8], bl
  40347e:	8b 5d fc 	mov	ebx, dword ptr [ebp - 4]
  403481:	8a 92 fc 8a 40 00 	mov	dl, byte ptr [edx + 4229884]
  403487:	c1 fb 10 	sar	ebx, 16
  40348a:	32 d3 	xor	dl, bl
  40348c:	8b 5d fc 	mov	ebx, dword ptr [ebp - 4]
  40348f:	88 50 09 	mov	byte ptr [eax + 9], dl
  403492:	33 d2 	xor	edx, edx
  403494:	8a d5 	mov	dl, ch
  403496:	c1 fb 08 	sar	ebx, 8
  403499:	8a 92 fc 8a 40 00 	mov	dl, byte ptr [edx + 4229884]
  40349f:	32 d3 	xor	dl, bl
  4034a1:	88 50 0a 	mov	byte ptr [eax + 10], dl
  4034a4:	8b 55 f8 	mov	edx, dword ptr [ebp - 8]
  4034a7:	23 ce 	and	ecx, esi
  4034a9:	23 d6 	and	edx, esi
  4034ab:	5e 	pop	esi
  4034ac:	8a 92 fc 8a 40 00 	mov	dl, byte ptr [edx + 4229884]
  4034b2:	32 55 fc 	xor	dl, byte ptr [ebp - 4]
  4034b5:	88 50 0b 	mov	byte ptr [eax + 11], dl
  4034b8:	8b 7f 0c 	mov	edi, dword ptr [edi + 12]
  4034bb:	33 d2 	xor	edx, edx
  4034bd:	8b df 	mov	ebx, edi
  4034bf:	8a 55 fb 	mov	dl, byte ptr [ebp - 5]
  4034c2:	89 7d fc 	mov	dword ptr [ebp - 4], edi
  4034c5:	c1 fb 18 	sar	ebx, 24
  4034c8:	8a 92 fc 8a 40 00 	mov	dl, byte ptr [edx + 4229884]
  4034ce:	32 d3 	xor	dl, bl
  4034d0:	8b df 	mov	ebx, edi
  4034d2:	88 50 0c 	mov	byte ptr [eax + 12], dl
  4034d5:	33 d2 	xor	edx, edx
  4034d7:	8a 55 f6 	mov	dl, byte ptr [ebp - 10]
  4034da:	c1 fb 10 	sar	ebx, 16
  4034dd:	8a 92 fc 8a 40 00 	mov	dl, byte ptr [edx + 4229884]
  4034e3:	32 d3 	xor	dl, bl
  4034e5:	8b df 	mov	ebx, edi
  4034e7:	88 50 0d 	mov	byte ptr [eax + 13], dl
  4034ea:	33 d2 	xor	edx, edx
  4034ec:	8a 55 f1 	mov	dl, byte ptr [ebp - 15]
  4034ef:	c1 fb 08 	sar	ebx, 8
  4034f2:	8a 92 fc 8a 40 00 	mov	dl, byte ptr [edx + 4229884]
  4034f8:	32 d3 	xor	dl, bl
  4034fa:	5b 	pop	ebx
  4034fb:	88 50 0e 	mov	byte ptr [eax + 14], dl
  4034fe:	8a 89 fc 8a 40 00 	mov	cl, byte ptr [ecx + 4229884]
  403504:	32 4d fc 	xor	cl, byte ptr [ebp - 4]
  403507:	5f 	pop	edi
  403508:	88 48 0f 	mov	byte ptr [eax + 15], cl
  40350b:	c9 	leave
  40350c:	c2 08 00 	ret	8
  40350f:	55 	push	ebp
  403510:	8b ec 	mov	ebp, esp
  403512:	83 ec 34 	sub	esp, 52
  403515:	53 	push	ebx
  403516:	56 	push	esi
  403517:	8b f1 	mov	esi, ecx
  403519:	57 	push	edi
  40351a:	80 7e 04 00 	cmp	byte ptr [esi + 4], 0
  40351e:	75 1c 	jne	28 <.text+0x253C>
  403520:	68 70 f5 40 00 	push	4257136
  403525:	8d 4d cc 	lea	ecx, [ebp - 52]
  403528:	ff 15 84 81 40 00 	call	dword ptr [4227460]
  40352e:	8d 45 cc 	lea	eax, [ebp - 52]
  403531:	68 70 d5 40 00 	push	4248944
  403536:	50 	push	eax
  403537:	e8 32 42 00 00 	call	16946 <.text+0x676E>
  40353c:	8b 86 cc 03 00 00 	mov	eax, dword ptr [esi + 972]
  403542:	83 f8 10 	cmp	eax, 16
  403545:	75 12 	jne	18 <.text+0x2559>
  403547:	ff 75 0c 	push	dword ptr [ebp + 12]
  40354a:	8b ce 	mov	ecx, esi
  40354c:	ff 75 08 	push	dword ptr [ebp + 8]
  40354f:	e8 2a f9 ff ff 	call	-1750 <.text+0x1E7E>
  403554:	e9 37 02 00 00 	jmp	567 <.text+0x2790>
  403559:	6a 04 	push	4
  40355b:	99 	cdq
  40355c:	59 	pop	ecx
  40355d:	f7 f9 	idiv	ecx
  40355f:	8b f8 	mov	edi, eax
  403561:	2b c1 	sub	eax, ecx
  403563:	33 c9 	xor	ecx, ecx
  403565:	83 ff 06 	cmp	edi, 6
  403568:	0f 95 c1 	setne	cl
  40356b:	41 	inc	ecx
  40356c:	f7 d8 	neg	eax
  40356e:	1b c0 	sbb	eax, eax
  403570:	23 c1 	and	eax, ecx
  403572:	c1 e0 05 	shl	eax, 5
  403575:	85 ff 	test	edi, edi
  403577:	8b 88 24 bc 40 00 	mov	ecx, dword ptr [eax + 4242468]
  40357d:	89 4d e8 	mov	dword ptr [ebp - 24], ecx
  403580:	8b 88 2c bc 40 00 	mov	ecx, dword ptr [eax + 4242476]
  403586:	8b 80 34 bc 40 00 	mov	eax, dword ptr [eax + 4242484]
  40358c:	89 4d ec 	mov	dword ptr [ebp - 20], ecx
  40358f:	89 45 e4 	mov	dword ptr [ebp - 28], eax
  403592:	8d 86 54 04 00 00 	lea	eax, [esi + 1108]
  403598:	7e 40 	jle	64 <.text+0x25DA>
  40359a:	8d 4e 08 	lea	ecx, [esi + 8]
  40359d:	89 7d f4 	mov	dword ptr [ebp - 12], edi
  4035a0:	89 4d fc 	mov	dword ptr [ebp - 4], ecx
  4035a3:	8b 4d 08 	mov	ecx, dword ptr [ebp + 8]
  4035a6:	0f b6 11 	movzx	edx, byte ptr [ecx]
  4035a9:	c1 e2 18 	shl	edx, 24
  4035ac:	41 	inc	ecx
  4035ad:	89 10 	mov	dword ptr [eax], edx
  4035af:	0f b6 11 	movzx	edx, byte ptr [ecx]
  4035b2:	c1 e2 10 	shl	edx, 16
  4035b5:	09 10 	or	dword ptr [eax], edx
  4035b7:	41 	inc	ecx
  4035b8:	33 d2 	xor	edx, edx
  4035ba:	8a 31 	mov	dh, byte ptr [ecx]
  4035bc:	09 10 	or	dword ptr [eax], edx
  4035be:	41 	inc	ecx
  4035bf:	8b d0 	mov	edx, eax
  4035c1:	0f b6 19 	movzx	ebx, byte ptr [ecx]
  4035c4:	09 18 	or	dword ptr [eax], ebx
  4035c6:	8b 5d fc 	mov	ebx, dword ptr [ebp - 4]
  4035c9:	83 45 fc 04 	add	dword ptr [ebp - 4], 4
  4035cd:	41 	inc	ecx
  4035ce:	8b 1b 	mov	ebx, dword ptr [ebx]
  4035d0:	83 c0 04 	add	eax, 4
  4035d3:	31 1a 	xor	dword ptr [edx], ebx
  4035d5:	ff 4d f4 	dec	dword ptr [ebp - 12]
  4035d8:	75 cc 	jne	-52 <.text+0x25A6>
  4035da:	6a 01 	push	1
  4035dc:	58 	pop	eax
  4035dd:	39 86 10 04 00 00 	cmp	dword ptr [esi + 1040], eax
  4035e3:	89 45 f4 	mov	dword ptr [ebp - 12], eax
  4035e6:	0f 8e db 00 00 00 	jle	219 <.text+0x26C7>
  4035ec:	8d 46 28 	lea	eax, [esi + 40]
  4035ef:	89 45 f8 	mov	dword ptr [ebp - 8], eax
  4035f2:	85 ff 	test	edi, edi
  4035f4:	0f 8e 9b 00 00 00 	jle	155 <.text+0x2695>
  4035fa:	8b 45 f8 	mov	eax, dword ptr [ebp - 8]
  4035fd:	8b 55 e8 	mov	edx, dword ptr [ebp - 24]
  403600:	89 45 fc 	mov	dword ptr [ebp - 4], eax
  403603:	8b 45 ec 	mov	eax, dword ptr [ebp - 20]
  403606:	2b c2 	sub	eax, edx
  403608:	89 55 08 	mov	dword ptr [ebp + 8], edx
  40360b:	89 45 e0 	mov	dword ptr [ebp - 32], eax
  40360e:	8b 45 e4 	mov	eax, dword ptr [ebp - 28]
  403611:	2b c2 	sub	eax, edx
  403613:	8d 8e 34 04 00 00 	lea	ecx, [esi + 1076]
  403619:	89 45 dc 	mov	dword ptr [ebp - 36], eax
  40361c:	89 7d f0 	mov	dword ptr [ebp - 16], edi
  40361f:	8b 45 e0 	mov	eax, dword ptr [ebp - 32]
  403622:	8b 5d 08 	mov	ebx, dword ptr [ebp + 8]
  403625:	03 c3 	add	eax, ebx
  403627:	99 	cdq
  403628:	f7 ff 	idiv	edi
  40362a:	8b c2 	mov	eax, edx
  40362c:	33 d2 	xor	edx, edx
  40362e:	8a 94 86 55 04 00 00 	mov	dl, byte ptr [esi + 4*eax + 1109]
  403635:	8b 45 dc 	mov	eax, dword ptr [ebp - 36]
  403638:	03 c3 	add	eax, ebx
  40363a:	89 55 d8 	mov	dword ptr [ebp - 40], edx
  40363d:	99 	cdq
  40363e:	f7 ff 	idiv	edi
  403640:	8b 84 96 54 04 00 00 	mov	eax, dword ptr [esi + 4*edx + 1108]
  403647:	8b 55 d8 	mov	edx, dword ptr [ebp - 40]
  40364a:	25 ff 00 00 00 	and	eax, 255
  40364f:	8b 1c 95 fc 93 40 00 	mov	ebx, dword ptr [4*edx + 4232188]
  403656:	33 1c 85 fc 97 40 00 	xor	ebx, dword ptr [4*eax + 4233212]
  40365d:	8b 45 08 	mov	eax, dword ptr [ebp + 8]
  403660:	99 	cdq
  403661:	f7 ff 	idiv	edi
  403663:	33 c0 	xor	eax, eax
  403665:	8a 84 96 56 04 00 00 	mov	al, byte ptr [esi + 4*edx + 1110]
  40366c:	33 1c 85 fc 8f 40 00 	xor	ebx, dword ptr [4*eax + 4231164]
  403673:	33 c0 	xor	eax, eax
  403675:	8a 41 23 	mov	al, byte ptr [ecx + 35]
  403678:	33 1c 85 fc 8b 40 00 	xor	ebx, dword ptr [4*eax + 4230140]
  40367f:	8b 45 fc 	mov	eax, dword ptr [ebp - 4]
  403682:	83 45 fc 04 	add	dword ptr [ebp - 4], 4
  403686:	33 18 	xor	ebx, dword ptr [eax]
  403688:	89 19 	mov	dword ptr [ecx], ebx
  40368a:	83 c1 04 	add	ecx, 4
  40368d:	ff 45 08 	inc	dword ptr [ebp + 8]
  403690:	ff 4d f0 	dec	dword ptr [ebp - 16]
  403693:	75 8a 	jne	-118 <.text+0x261F>
  403695:	8b c7 	mov	eax, edi
  403697:	c1 e0 02 	shl	eax, 2
  40369a:	50 	push	eax
  40369b:	8d 86 34 04 00 00 	lea	eax, [esi + 1076]
  4036a1:	50 	push	eax
  4036a2:	8d 86 54 04 00 00 	lea	eax, [esi + 1108]
  4036a8:	50 	push	eax
  4036a9:	e8 58 40 00 00 	call	16472 <.text+0x6706>
  4036ae:	83 45 f8 20 	add	dword ptr [ebp - 8], 32
  4036b2:	83 c4 0c 	add	esp, 12
  4036b5:	ff 45 f4 	inc	dword ptr [ebp - 12]
  4036b8:	8b 45 f4 	mov	eax, dword ptr [ebp - 12]
  4036bb:	3b 86 10 04 00 00 	cmp	eax, dword ptr [esi + 1040]
  4036c1:	0f 8c 2b ff ff ff 	jl	-213 <.text+0x25F2>
  4036c7:	83 65 fc 00 	and	dword ptr [ebp - 4], 0
  4036cb:	85 ff 	test	edi, edi
  4036cd:	0f 8e bd 00 00 00 	jle	189 <.text+0x2790>
  4036d3:	8b 4d 0c 	mov	ecx, dword ptr [ebp + 12]
  4036d6:	8b 5d ec 	mov	ebx, dword ptr [ebp - 20]
  4036d9:	8d 86 54 04 00 00 	lea	eax, [esi + 1108]
  4036df:	89 45 0c 	mov	dword ptr [ebp + 12], eax
  4036e2:	8b 45 e8 	mov	eax, dword ptr [ebp - 24]
  4036e5:	2b c3 	sub	eax, ebx
  4036e7:	89 45 d8 	mov	dword ptr [ebp - 40], eax
  4036ea:	8b 45 e4 	mov	eax, dword ptr [ebp - 28]
  4036ed:	2b c3 	sub	eax, ebx
  4036ef:	89 45 dc 	mov	dword ptr [ebp - 36], eax
  4036f2:	8b 86 10 04 00 00 	mov	eax, dword ptr [esi + 1040]
  4036f8:	8b 55 fc 	mov	edx, dword ptr [ebp - 4]
  4036fb:	8d 04 c2 	lea	eax, [edx + 8*eax]
  4036fe:	8b 55 0c 	mov	edx, dword ptr [ebp + 12]
  403701:	83 45 0c 04 	add	dword ptr [ebp + 12], 4
  403705:	8b 44 86 08 	mov	eax, dword ptr [esi + 4*eax + 8]
  403709:	89 45 08 	mov	dword ptr [ebp + 8], eax
  40370c:	33 c0 	xor	eax, eax
  40370e:	8a 42 03 	mov	al, byte ptr [edx + 3]
  403711:	8b 55 08 	mov	edx, dword ptr [ebp + 8]
  403714:	c1 fa 18 	sar	edx, 24
  403717:	8a 80 fc 89 40 00 	mov	al, byte ptr [eax + 4229628]
  40371d:	32 c2 	xor	al, dl
  40371f:	88 01 	mov	byte ptr [ecx], al
  403721:	8b 45 d8 	mov	eax, dword ptr [ebp - 40]
  403724:	03 c3 	add	eax, ebx
  403726:	41 	inc	ecx
  403727:	99 	cdq
  403728:	f7 ff 	idiv	edi
  40372a:	33 c0 	xor	eax, eax
  40372c:	8a 84 96 56 04 00 00 	mov	al, byte ptr [esi + 4*edx + 1110]
  403733:	8b 55 08 	mov	edx, dword ptr [ebp + 8]
  403736:	c1 fa 10 	sar	edx, 16
  403739:	8a 80 fc 89 40 00 	mov	al, byte ptr [eax + 4229628]
  40373f:	32 c2 	xor	al, dl
  403741:	88 01 	mov	byte ptr [ecx], al
  403743:	8b c3 	mov	eax, ebx
  403745:	99 	cdq
  403746:	f7 ff 	idiv	edi
  403748:	33 c0 	xor	eax, eax
  40374a:	41 	inc	ecx
  40374b:	8a 84 96 55 04 00 00 	mov	al, byte ptr [esi + 4*edx + 1109]
  403752:	8b 55 08 	mov	edx, dword ptr [ebp + 8]
  403755:	c1 fa 08 	sar	edx, 8
  403758:	8a 80 fc 89 40 00 	mov	al, byte ptr [eax + 4229628]
  40375e:	32 c2 	xor	al, dl
  403760:	88 01 	mov	byte ptr [ecx], al
  403762:	8b 45 dc 	mov	eax, dword ptr [ebp - 36]
  403765:	03 c3 	add	eax, ebx
  403767:	41 	inc	ecx
  403768:	99 	cdq
  403769:	f7 ff 	idiv	edi
  40376b:	8b 84 96 54 04 00 00 	mov	eax, dword ptr [esi + 4*edx + 1108]
  403772:	25 ff 00 00 00 	and	eax, 255
  403777:	8a 80 fc 89 40 00 	mov	al, byte ptr [eax + 4229628]
  40377d:	32 45 08 	xor	al, byte ptr [ebp + 8]
  403780:	88 01 	mov	byte ptr [ecx], al
  403782:	41 	inc	ecx
  403783:	ff 45 fc 	inc	dword ptr [ebp - 4]
  403786:	43 	inc	ebx
  403787:	39 7d fc 	cmp	dword ptr [ebp - 4], edi
  40378a:	0f 8c 62 ff ff ff 	jl	-158 <.text+0x26F2>
  403790:	5f 	pop	edi
  403791:	5e 	pop	esi
  403792:	5b 	pop	ebx
  403793:	c9 	leave
  403794:	c2 08 00 	ret	8
  403797:	55 	push	ebp
  403798:	8b ec 	mov	ebp, esp
  40379a:	83 ec 34 	sub	esp, 52
  40379d:	53 	push	ebx
  40379e:	56 	push	esi
  40379f:	8b f1 	mov	esi, ecx
  4037a1:	57 	push	edi
  4037a2:	80 7e 04 00 	cmp	byte ptr [esi + 4], 0
  4037a6:	75 1c 	jne	28 <.text+0x27C4>
  4037a8:	68 70 f5 40 00 	push	4257136
  4037ad:	8d 4d cc 	lea	ecx, [ebp - 52]
  4037b0:	ff 15 84 81 40 00 	call	dword ptr [4227460]
  4037b6:	8d 45 cc 	lea	eax, [ebp - 52]
  4037b9:	68 70 d5 40 00 	push	4248944
  4037be:	50 	push	eax
  4037bf:	e8 aa 3f 00 00 	call	16298 <.text+0x676E>
  4037c4:	8b 86 cc 03 00 00 	mov	eax, dword ptr [esi + 972]
  4037ca:	83 f8 10 	cmp	eax, 16
  4037cd:	75 12 	jne	18 <.text+0x27E1>
  4037cf:	ff 75 0c 	push	dword ptr [ebp + 12]
  4037d2:	8b ce 	mov	ecx, esi
  4037d4:	ff 75 08 	push	dword ptr [ebp + 8]
  4037d7:	e8 e0 f9 ff ff 	call	-1568 <.text+0x21BC>
  4037dc:	e9 40 02 00 00 	jmp	576 <.text+0x2A21>
  4037e1:	6a 04 	push	4
  4037e3:	99 	cdq
  4037e4:	59 	pop	ecx
  4037e5:	f7 f9 	idiv	ecx
  4037e7:	8b f8 	mov	edi, eax
  4037e9:	2b c1 	sub	eax, ecx
  4037eb:	33 c9 	xor	ecx, ecx
  4037ed:	83 ff 06 	cmp	edi, 6
  4037f0:	0f 95 c1 	setne	cl
  4037f3:	41 	inc	ecx
  4037f4:	f7 d8 	neg	eax
  4037f6:	1b c0 	sbb	eax, eax
  4037f8:	23 c1 	and	eax, ecx
  4037fa:	c1 e0 05 	shl	eax, 5
  4037fd:	85 ff 	test	edi, edi
  4037ff:	8b 88 28 bc 40 00 	mov	ecx, dword ptr [eax + 4242472]
  403805:	89 4d e8 	mov	dword ptr [ebp - 24], ecx
  403808:	8b 88 30 bc 40 00 	mov	ecx, dword ptr [eax + 4242480]
  40380e:	8b 80 38 bc 40 00 	mov	eax, dword ptr [eax + 4242488]
  403814:	89 4d ec 	mov	dword ptr [ebp - 20], ecx
  403817:	89 45 e4 	mov	dword ptr [ebp - 28], eax
  40381a:	8d 86 54 04 00 00 	lea	eax, [esi + 1108]
  403820:	7e 43 	jle	67 <.text+0x2865>
  403822:	8d 8e e8 01 00 00 	lea	ecx, [esi + 488]
  403828:	89 7d f4 	mov	dword ptr [ebp - 12], edi
  40382b:	89 4d fc 	mov	dword ptr [ebp - 4], ecx
  40382e:	8b 4d 08 	mov	ecx, dword ptr [ebp + 8]
  403831:	0f b6 11 	movzx	edx, byte ptr [ecx]
  403834:	c1 e2 18 	shl	edx, 24
  403837:	41 	inc	ecx
  403838:	89 10 	mov	dword ptr [eax], edx
  40383a:	0f b6 11 	movzx	edx, byte ptr [ecx]
  40383d:	c1 e2 10 	shl	edx, 16
  403840:	09 10 	or	dword ptr [eax], edx
  403842:	41 	inc	ecx
  403843:	33 d2 	xor	edx, edx
  403845:	8a 31 	mov	dh, byte ptr [ecx]
  403847:	09 10 	or	dword ptr [eax], edx
  403849:	41 	inc	ecx
  40384a:	8b d0 	mov	edx, eax
  40384c:	0f b6 19 	movzx	ebx, byte ptr [ecx]
  40384f:	09 18 	or	dword ptr [eax], ebx
  403851:	8b 5d fc 	mov	ebx, dword ptr [ebp - 4]
  403854:	83 45 fc 04 	add	dword ptr [ebp - 4], 4
  403858:	41 	inc	ecx
  403859:	8b 1b 	mov	ebx, dword ptr [ebx]
  40385b:	83 c0 04 	add	eax, 4
  40385e:	31 1a 	xor	dword ptr [edx], ebx
  403860:	ff 4d f4 	dec	dword ptr [ebp - 12]
  403863:	75 cc 	jne	-52 <.text+0x2831>
  403865:	6a 01 	push	1
  403867:	58 	pop	eax
  403868:	39 86 10 04 00 00 	cmp	dword ptr [esi + 1040], eax
  40386e:	89 45 f4 	mov	dword ptr [ebp - 12], eax
  403871:	0f 8e de 00 00 00 	jle	222 <.text+0x2955>
  403877:	8d 86 08 02 00 00 	lea	eax, [esi + 520]
  40387d:	89 45 f8 	mov	dword ptr [ebp - 8], eax
  403880:	85 ff 	test	edi, edi
  403882:	0f 8e 9b 00 00 00 	jle	155 <.text+0x2923>
  403888:	8b 45 f8 	mov	eax, dword ptr [ebp - 8]
  40388b:	8b 55 e8 	mov	edx, dword ptr [ebp - 24]
  40388e:	89 45 fc 	mov	dword ptr [ebp - 4], eax
  403891:	8b 45 ec 	mov	eax, dword ptr [ebp - 20]
  403894:	2b c2 	sub	eax, edx
  403896:	89 55 08 	mov	dword ptr [ebp + 8], edx
  403899:	89 45 e0 	mov	dword ptr [ebp - 32], eax
  40389c:	8b 45 e4 	mov	eax, dword ptr [ebp - 28]
  40389f:	2b c2 	sub	eax, edx
  4038a1:	8d 8e 34 04 00 00 	lea	ecx, [esi + 1076]
  4038a7:	89 45 dc 	mov	dword ptr [ebp - 36], eax
  4038aa:	89 7d f0 	mov	dword ptr [ebp - 16], edi
  4038ad:	8b 45 e0 	mov	eax, dword ptr [ebp - 32]
  4038b0:	8b 5d 08 	mov	ebx, dword ptr [ebp + 8]
  4038b3:	03 c3 	add	eax, ebx
  4038b5:	99 	cdq
  4038b6:	f7 ff 	idiv	edi
  4038b8:	8b c2 	mov	eax, edx
  4038ba:	33 d2 	xor	edx, edx
  4038bc:	8a 94 86 55 04 00 00 	mov	dl, byte ptr [esi + 4*eax + 1109]
  4038c3:	8b 45 dc 	mov	eax, dword ptr [ebp - 36]
  4038c6:	03 c3 	add	eax, ebx
  4038c8:	89 55 d8 	mov	dword ptr [ebp - 40], edx
  4038cb:	99 	cdq
  4038cc:	f7 ff 	idiv	edi
  4038ce:	8b 84 96 54 04 00 00 	mov	eax, dword ptr [esi + 4*edx + 1108]
  4038d5:	8b 55 d8 	mov	edx, dword ptr [ebp - 40]
  4038d8:	25 ff 00 00 00 	and	eax, 255
  4038dd:	8b 1c 95 fc a3 40 00 	mov	ebx, dword ptr [4*edx + 4236284]
  4038e4:	33 1c 85 fc a7 40 00 	xor	ebx, dword ptr [4*eax + 4237308]
  4038eb:	8b 45 08 	mov	eax, dword ptr [ebp + 8]
  4038ee:	99 	cdq
  4038ef:	f7 ff 	idiv	edi
  4038f1:	33 c0 	xor	eax, eax
  4038f3:	8a 84 96 56 04 00 00 	mov	al, byte ptr [esi + 4*edx + 1110]
  4038fa:	33 1c 85 fc 9f 40 00 	xor	ebx, dword ptr [4*eax + 4235260]
  403901:	33 c0 	xor	eax, eax
  403903:	8a 41 23 	mov	al, byte ptr [ecx + 35]
  403906:	33 1c 85 fc 9b 40 00 	xor	ebx, dword ptr [4*eax + 4234236]
  40390d:	8b 45 fc 	mov	eax, dword ptr [ebp - 4]
  403910:	83 45 fc 04 	add	dword ptr [ebp - 4], 4
  403914:	33 18 	xor	ebx, dword ptr [eax]
  403916:	89 19 	mov	dword ptr [ecx], ebx
  403918:	83 c1 04 	add	ecx, 4
  40391b:	ff 45 08 	inc	dword ptr [ebp + 8]
  40391e:	ff 4d f0 	dec	dword ptr [ebp - 16]
  403921:	75 8a 	jne	-118 <.text+0x28AD>
  403923:	8b c7 	mov	eax, edi
  403925:	c1 e0 02 	shl	eax, 2
  403928:	50 	push	eax
  403929:	8d 86 34 04 00 00 	lea	eax, [esi + 1076]
  40392f:	50 	push	eax
  403930:	8d 86 54 04 00 00 	lea	eax, [esi + 1108]
  403936:	50 	push	eax
  403937:	e8 ca 3d 00 00 	call	15818 <.text+0x6706>
  40393c:	83 45 f8 20 	add	dword ptr [ebp - 8], 32
  403940:	83 c4 0c 	add	esp, 12
  403943:	ff 45 f4 	inc	dword ptr [ebp - 12]
  403946:	8b 45 f4 	mov	eax, dword ptr [ebp - 12]
  403949:	3b 86 10 04 00 00 	cmp	eax, dword ptr [esi + 1040]
  40394f:	0f 8c 2b ff ff ff 	jl	-213 <.text+0x2880>
  403955:	83 65 fc 00 	and	dword ptr [ebp - 4], 0
  403959:	85 ff 	test	edi, edi
  40395b:	0f 8e c0 00 00 00 	jle	192 <.text+0x2A21>
  403961:	8b 4d 0c 	mov	ecx, dword ptr [ebp + 12]
  403964:	8b 5d ec 	mov	ebx, dword ptr [ebp - 20]
  403967:	8d 86 54 04 00 00 	lea	eax, [esi + 1108]
  40396d:	89 45 0c 	mov	dword ptr [ebp + 12], eax
  403970:	8b 45 e8 	mov	eax, dword ptr [ebp - 24]
  403973:	2b c3 	sub	eax, ebx
  403975:	89 45 d8 	mov	dword ptr [ebp - 40], eax
  403978:	8b 45 e4 	mov	eax, dword ptr [ebp - 28]
  40397b:	2b c3 	sub	eax, ebx
  40397d:	89 45 dc 	mov	dword ptr [ebp - 36], eax
  403980:	8b 86 10 04 00 00 	mov	eax, dword ptr [esi + 1040]
  403986:	8b 55 fc 	mov	edx, dword ptr [ebp - 4]
  403989:	8d 04 c2 	lea	eax, [edx + 8*eax]
  40398c:	8b 55 0c 	mov	edx, dword ptr [ebp + 12]
  40398f:	83 45 0c 04 	add	dword ptr [ebp + 12], 4
  403993:	8b 84 86 e8 01 00 00 	mov	eax, dword ptr [esi + 4*eax + 488]
  40399a:	89 45 08 	mov	dword ptr [ebp + 8], eax
  40399d:	33 c0 	xor	eax, eax
  40399f:	8a 42 03 	mov	al, byte ptr [edx + 3]
  4039a2:	8b 55 08 	mov	edx, dword ptr [ebp + 8]
  4039a5:	c1 fa 18 	sar	edx, 24
  4039a8:	8a 80 fc 8a 40 00 	mov	al, byte ptr [eax + 4229884]
  4039ae:	32 c2 	xor	al, dl
  4039b0:	88 01 	mov	byte ptr [ecx], al
  4039b2:	8b 45 d8 	mov	eax, dword ptr [ebp - 40]
  4039b5:	03 c3 	add	eax, ebx
  4039b7:	41 	inc	ecx
  4039b8:	99 	cdq
  4039b9:	f7 ff 	idiv	edi
  4039bb:	33 c0 	xor	eax, eax
  4039bd:	8a 84 96 56 04 00 00 	mov	al, byte ptr [esi + 4*edx + 1110]
  4039c4:	8b 55 08 	mov	edx, dword ptr [ebp + 8]
  4039c7:	c1 fa 10 	sar	edx, 16
  4039ca:	8a 80 fc 8a 40 00 	mov	al, byte ptr [eax + 4229884]
  4039d0:	32 c2 	xor	al, dl
  4039d2:	88 01 	mov	byte ptr [ecx], al
  4039d4:	8b c3 	mov	eax, ebx
  4039d6:	99 	cdq
  4039d7:	f7 ff 	idiv	edi
  4039d9:	33 c0 	xor	eax, eax
  4039db:	41 	inc	ecx
  4039dc:	8a 84 96 55 04 00 00 	mov	al, byte ptr [esi + 4*edx + 1109]
  4039e3:	8b 55 08 	mov	edx, dword ptr [ebp + 8]
  4039e6:	c1 fa 08 	sar	edx, 8
  4039e9:	8a 80 fc 8a 40 00 	mov	al, byte ptr [eax + 4229884]
  4039ef:	32 c2 	xor	al, dl
  4039f1:	88 01 	mov	byte ptr [ecx], al
  4039f3:	8b 45 dc 	mov	eax, dword ptr [ebp - 36]
  4039f6:	03 c3 	add	eax, ebx
  4039f8:	41 	inc	ecx
  4039f9:	99 	cdq
  4039fa:	f7 ff 	idiv	edi
  4039fc:	8b 84 96 54 04 00 00 	mov	eax, dword ptr [esi + 4*edx + 1108]
  403a03:	25 ff 00 00 00 	and	eax, 255
  403a08:	8a 80 fc 8a 40 00 	mov	al, byte ptr [eax + 4229884]
  403a0e:	32 45 08 	xor	al, byte ptr [ebp + 8]
  403a11:	88 01 	mov	byte ptr [ecx], al
  403a13:	41 	inc	ecx
  403a14:	ff 45 fc 	inc	dword ptr [ebp - 4]
  403a17:	43 	inc	ebx
  403a18:	39 7d fc 	cmp	dword ptr [ebp - 4], edi
  403a1b:	0f 8c 5f ff ff ff 	jl	-161 <.text+0x2980>
  403a21:	5f 	pop	edi
  403a22:	5e 	pop	esi
  403a23:	5b 	pop	ebx
  403a24:	c9 	leave
  403a25:	c2 08 00 	ret	8
  403a28:	55 	push	ebp
  403a29:	8b ec 	mov	ebp, esp
  403a2b:	83 ec 0c 	sub	esp, 12
  403a2e:	80 79 04 00 	cmp	byte ptr [ecx + 4], 0
  403a32:	56 	push	esi
  403a33:	75 1c 	jne	28 <.text+0x2A51>
  403a35:	68 70 f5 40 00 	push	4257136
  403a3a:	8d 4d f4 	lea	ecx, [ebp - 12]
  403a3d:	ff 15 84 81 40 00 	call	dword ptr [4227460]
  403a43:	8d 45 f4 	lea	eax, [ebp - 12]
  403a46:	68 70 d5 40 00 	push	4248944
  403a4b:	50 	push	eax
  403a4c:	e8 1d 3d 00 00 	call	15645 <.text+0x676E>
  403a51:	33 f6 	xor	esi, esi
  403a53:	39 b1 cc 03 00 00 	cmp	dword ptr [ecx + 972], esi
  403a59:	7e 17 	jle	23 <.text+0x2A72>
  403a5b:	8b 45 08 	mov	eax, dword ptr [ebp + 8]
  403a5e:	57 	push	edi
  403a5f:	8b 7d 0c 	mov	edi, dword ptr [ebp + 12]
  403a62:	8a 17 	mov	dl, byte ptr [edi]
  403a64:	30 10 	xor	byte ptr [eax], dl
  403a66:	47 	inc	edi
  403a67:	40 	inc	eax
  403a68:	46 	inc	esi
  403a69:	3b b1 cc 03 00 00 	cmp	esi, dword ptr [ecx + 972]
  403a6f:	7c f1 	jl	-15 <.text+0x2A62>
  403a71:	5f 	pop	edi
  403a72:	5e 	pop	esi
  403a73:	c9 	leave
  403a74:	c2 08 00 	ret	8
  403a77:	55 	push	ebp
  403a78:	8b ec 	mov	ebp, esp
  403a7a:	83 ec 0c 	sub	esp, 12
  403a7d:	53 	push	ebx
  403a7e:	56 	push	esi
  403a7f:	8b f1 	mov	esi, ecx
  403a81:	33 db 	xor	ebx, ebx
  403a83:	57 	push	edi
  403a84:	38 5e 04 	cmp	byte ptr [esi + 4], bl
  403a87:	75 1c 	jne	28 <.text+0x2AA5>
  403a89:	68 70 f5 40 00 	push	4257136
  403a8e:	8d 4d f4 	lea	ecx, [ebp - 12]
  403a91:	ff 15 84 81 40 00 	call	dword ptr [4227460]
  403a97:	8d 45 f4 	lea	eax, [ebp - 12]
  403a9a:	68 70 d5 40 00 	push	4248944
  403a9f:	50 	push	eax
  403aa0:	e8 c9 3c 00 00 	call	15561 <.text+0x676E>
  403aa5:	8b 45 10 	mov	eax, dword ptr [ebp + 16]
  403aa8:	3b c3 	cmp	eax, ebx
  403aaa:	0f 84 0a 01 00 00 	je	266 <.text+0x2BBA>
  403ab0:	8b 8e cc 03 00 00 	mov	ecx, dword ptr [esi + 972]
  403ab6:	33 d2 	xor	edx, edx
  403ab8:	f7 f1 	div	ecx
  403aba:	85 d2 	test	edx, edx
  403abc:	0f 85 f8 00 00 00 	jne	248 <.text+0x2BBA>
  403ac2:	83 7d 14 01 	cmp	dword ptr [ebp + 20], 1
  403ac6:	75 60 	jne	96 <.text+0x2B28>
  403ac8:	8b 45 10 	mov	eax, dword ptr [ebp + 16]
  403acb:	8b 7d 08 	mov	edi, dword ptr [ebp + 8]
  403ace:	f7 f1 	div	ecx
  403ad0:	89 5d 14 	mov	dword ptr [ebp + 20], ebx
  403ad3:	8b 5d 0c 	mov	ebx, dword ptr [ebp + 12]
  403ad6:	85 c0 	test	eax, eax
  403ad8:	76 47 	jbe	71 <.text+0x2B21>
  403ada:	53 	push	ebx
  403adb:	57 	push	edi
  403adc:	8b ce 	mov	ecx, esi
  403ade:	e8 b4 fc ff ff 	call	-844 <.text+0x2797>
  403ae3:	8d 86 f0 03 00 00 	lea	eax, [esi + 1008]
  403ae9:	8b ce 	mov	ecx, esi
  403aeb:	50 	push	eax
  403aec:	53 	push	ebx
  403aed:	e8 36 ff ff ff 	call	-202 <.text+0x2A28>
  403af2:	ff b6 cc 03 00 00 	push	dword ptr [esi + 972]
  403af8:	8d 86 f0 03 00 00 	lea	eax, [esi + 1008]
  403afe:	57 	push	edi
  403aff:	50 	push	eax
  403b00:	e8 01 3c 00 00 	call	15361 <.text+0x6706>
  403b05:	8b 8e cc 03 00 00 	mov	ecx, dword ptr [esi + 972]
  403b0b:	8b 45 10 	mov	eax, dword ptr [ebp + 16]
  403b0e:	33 d2 	xor	edx, edx
  403b10:	83 c4 0c 	add	esp, 12
  403b13:	f7 f1 	div	ecx
  403b15:	03 f9 	add	edi, ecx
  403b17:	03 d9 	add	ebx, ecx
  403b19:	ff 45 14 	inc	dword ptr [ebp + 20]
  403b1c:	39 45 14 	cmp	dword ptr [ebp + 20], eax
  403b1f:	72 b9 	jb	-71 <.text+0x2ADA>
  403b21:	5f 	pop	edi
  403b22:	5e 	pop	esi
  403b23:	5b 	pop	ebx
  403b24:	c9 	leave
  403b25:	c2 10 00 	ret	16
  403b28:	83 7d 14 02 	cmp	dword ptr [ebp + 20], 2
  403b2c:	8b 7d 08 	mov	edi, dword ptr [ebp + 8]
  403b2f:	8b 45 10 	mov	eax, dword ptr [ebp + 16]
  403b32:	89 5d 14 	mov	dword ptr [ebp + 20], ebx
  403b35:	8b 5d 0c 	mov	ebx, dword ptr [ebp + 12]
  403b38:	75 51 	jne	81 <.text+0x2B8B>
  403b3a:	33 d2 	xor	edx, edx
  403b3c:	f7 f1 	div	ecx
  403b3e:	85 c0 	test	eax, eax
  403b40:	76 df 	jbe	-33 <.text+0x2B21>
  403b42:	8d 86 f0 03 00 00 	lea	eax, [esi + 1008]
  403b48:	53 	push	ebx
  403b49:	50 	push	eax
  403b4a:	8b ce 	mov	ecx, esi
  403b4c:	e8 be f9 ff ff 	call	-1602 <.text+0x250F>
  403b51:	57 	push	edi
  403b52:	53 	push	ebx
  403b53:	8b ce 	mov	ecx, esi
  403b55:	e8 ce fe ff ff 	call	-306 <.text+0x2A28>
  403b5a:	ff b6 cc 03 00 00 	push	dword ptr [esi + 972]
  403b60:	8d 86 f0 03 00 00 	lea	eax, [esi + 1008]
  403b66:	57 	push	edi
  403b67:	50 	push	eax
  403b68:	e8 99 3b 00 00 	call	15257 <.text+0x6706>
  403b6d:	8b 8e cc 03 00 00 	mov	ecx, dword ptr [esi + 972]
  403b73:	8b 45 10 	mov	eax, dword ptr [ebp + 16]
  403b76:	33 d2 	xor	edx, edx
  403b78:	83 c4 0c 	add	esp, 12
  403b7b:	f7 f1 	div	ecx
  403b7d:	03 f9 	add	edi, ecx
  403b7f:	03 d9 	add	ebx, ecx
  403b81:	ff 45 14 	inc	dword ptr [ebp + 20]
  403b84:	39 45 14 	cmp	dword ptr [ebp + 20], eax
  403b87:	72 b9 	jb	-71 <.text+0x2B42>
  403b89:	eb 96 	jmp	-106 <.text+0x2B21>
  403b8b:	33 d2 	xor	edx, edx
  403b8d:	f7 f1 	div	ecx
  403b8f:	85 c0 	test	eax, eax
  403b91:	76 8e 	jbe	-114 <.text+0x2B21>
  403b93:	53 	push	ebx
  403b94:	57 	push	edi
  403b95:	8b ce 	mov	ecx, esi
  403b97:	e8 fb fb ff ff 	call	-1029 <.text+0x2797>
  403b9c:	8b 8e cc 03 00 00 	mov	ecx, dword ptr [esi + 972]
  403ba2:	8b 45 10 	mov	eax, dword ptr [ebp + 16]
  403ba5:	33 d2 	xor	edx, edx
  403ba7:	03 f9 	add	edi, ecx
  403ba9:	f7 f1 	div	ecx
  403bab:	03 d9 	add	ebx, ecx
  403bad:	ff 45 14 	inc	dword ptr [ebp + 20]
  403bb0:	39 45 14 	cmp	dword ptr [ebp + 20], eax
  403bb3:	72 de 	jb	-34 <.text+0x2B93>
  403bb5:	e9 67 ff ff ff 	jmp	-153 <.text+0x2B21>
  403bba:	68 74 f5 40 00 	push	4257140
  403bbf:	8d 4d f4 	lea	ecx, [ebp - 12]
  403bc2:	ff 15 84 81 40 00 	call	dword ptr [4227460]
  403bc8:	8d 45 f4 	lea	eax, [ebp - 12]
  403bcb:	68 70 d5 40 00 	push	4248944
  403bd0:	50 	push	eax
  403bd1:	e8 98 3b 00 00 	call	15256 <.text+0x676E>
  403bd6:	55 	push	ebp
  403bd7:	8b ec 	mov	ebp, esp
  403bd9:	51 	push	ecx
  403bda:	53 	push	ebx
  403bdb:	56 	push	esi
  403bdc:	8b 75 08 	mov	esi, dword ptr [ebp + 8]
  403bdf:	57 	push	edi
  403be0:	8b 7d 0c 	mov	edi, dword ptr [ebp + 12]
  403be3:	8b 4e 30 	mov	ecx, dword ptr [esi + 48]
  403be6:	8b 5e 34 	mov	ebx, dword ptr [esi + 52]
  403be9:	8b 47 0c 	mov	eax, dword ptr [edi + 12]
  403bec:	3b cb 	cmp	ecx, ebx
  403bee:	89 45 fc 	mov	dword ptr [ebp - 4], eax
  403bf1:	89 4d 0c 	mov	dword ptr [ebp + 12], ecx
  403bf4:	76 03 	jbe	3 <.text+0x2BF9>
  403bf6:	8b 5e 2c 	mov	ebx, dword ptr [esi + 44]
  403bf9:	8b 47 10 	mov	eax, dword ptr [edi + 16]
  403bfc:	2b d9 	sub	ebx, ecx
  403bfe:	3b d8 	cmp	ebx, eax
  403c00:	76 02 	jbe	2 <.text+0x2C04>
  403c02:	8b d8 	mov	ebx, eax
  403c04:	85 db 	test	ebx, ebx
  403c06:	74 0a 	je	10 <.text+0x2C12>
  403c08:	83 7d 10 fb 	cmp	dword ptr [ebp + 16], -5
  403c0c:	75 04 	jne	4 <.text+0x2C12>
  403c0e:	83 65 10 00 	and	dword ptr [ebp + 16], 0
  403c12:	01 5f 14 	add	dword ptr [edi + 20], ebx
  403c15:	2b c3 	sub	eax, ebx
  403c17:	89 47 10 	mov	dword ptr [edi + 16], eax
  403c1a:	8b 46 38 	mov	eax, dword ptr [esi + 56]
  403c1d:	85 c0 	test	eax, eax
  403c1f:	74 10 	je	16 <.text+0x2C31>
  403c21:	53 	push	ebx
  403c22:	51 	push	ecx
  403c23:	ff 76 3c 	push	dword ptr [esi + 60]
  403c26:	ff d0 	call	eax
  403c28:	89 46 3c 	mov	dword ptr [esi + 60], eax
  403c2b:	83 c4 0c 	add	esp, 12
  403c2e:	89 47 30 	mov	dword ptr [edi + 48], eax
  403c31:	85 db 	test	ebx, ebx
  403c33:	74 15 	je	21 <.text+0x2C4A>
  403c35:	53 	push	ebx
  403c36:	ff 75 0c 	push	dword ptr [ebp + 12]
  403c39:	ff 75 fc 	push	dword ptr [ebp - 4]
  403c3c:	e8 c5 3a 00 00 	call	15045 <.text+0x6706>
  403c41:	01 5d fc 	add	dword ptr [ebp - 4], ebx
  403c44:	83 c4 0c 	add	esp, 12
  403c47:	01 5d 0c 	add	dword ptr [ebp + 12], ebx
  403c4a:	8b 46 2c 	mov	eax, dword ptr [esi + 44]
  403c4d:	39 45 0c 	cmp	dword ptr [ebp + 12], eax
  403c50:	75 62 	jne	98 <.text+0x2CB4>
  403c52:	8b 4e 28 	mov	ecx, dword ptr [esi + 40]
  403c55:	39 46 34 	cmp	dword ptr [esi + 52], eax
  403c58:	89 4d 0c 	mov	dword ptr [ebp + 12], ecx
  403c5b:	75 03 	jne	3 <.text+0x2C60>
  403c5d:	89 4e 34 	mov	dword ptr [esi + 52], ecx
  403c60:	8b 5e 34 	mov	ebx, dword ptr [esi + 52]
  403c63:	8b 47 10 	mov	eax, dword ptr [edi + 16]
  403c66:	2b d9 	sub	ebx, ecx
  403c68:	3b d8 	cmp	ebx, eax
  403c6a:	76 02 	jbe	2 <.text+0x2C6E>
  403c6c:	8b d8 	mov	ebx, eax
  403c6e:	85 db 	test	ebx, ebx
  403c70:	74 0a 	je	10 <.text+0x2C7C>
  403c72:	83 7d 10 fb 	cmp	dword ptr [ebp + 16], -5
  403c76:	75 04 	jne	4 <.text+0x2C7C>
  403c78:	83 65 10 00 	and	dword ptr [ebp + 16], 0
  403c7c:	01 5f 14 	add	dword ptr [edi + 20], ebx
  403c7f:	2b c3 	sub	eax, ebx
  403c81:	89 47 10 	mov	dword ptr [edi + 16], eax
  403c84:	8b 46 38 	mov	eax, dword ptr [esi + 56]
  403c87:	85 c0 	test	eax, eax
  403c89:	74 10 	je	16 <.text+0x2C9B>
  403c8b:	53 	push	ebx
  403c8c:	51 	push	ecx
  403c8d:	ff 76 3c 	push	dword ptr [esi + 60]
  403c90:	ff d0 	call	eax
  403c92:	89 46 3c 	mov	dword ptr [esi + 60], eax
  403c95:	83 c4 0c 	add	esp, 12
  403c98:	89 47 30 	mov	dword ptr [edi + 48], eax
  403c9b:	85 db 	test	ebx, ebx
  403c9d:	74 15 	je	21 <.text+0x2CB4>
  403c9f:	53 	push	ebx
  403ca0:	ff 75 0c 	push	dword ptr [ebp + 12]
  403ca3:	ff 75 fc 	push	dword ptr [ebp - 4]
  403ca6:	e8 5b 3a 00 00 	call	14939 <.text+0x6706>
  403cab:	01 5d fc 	add	dword ptr [ebp - 4], ebx
  403cae:	83 c4 0c 	add	esp, 12
  403cb1:	01 5d 0c 	add	dword ptr [ebp + 12], ebx
  403cb4:	8b 45 fc 	mov	eax, dword ptr [ebp - 4]
  403cb7:	89 47 0c 	mov	dword ptr [edi + 12], eax
  403cba:	8b 45 0c 	mov	eax, dword ptr [ebp + 12]
  403cbd:	89 46 30 	mov	dword ptr [esi + 48], eax
  403cc0:	8b 45 10 	mov	eax, dword ptr [ebp + 16]
  403cc3:	5f 	pop	edi
  403cc4:	5e 	pop	esi
  403cc5:	5b 	pop	ebx
  403cc6:	c9 	leave
  403cc7:	c3 	ret
  403cc8:	55 	push	ebp
  403cc9:	8b ec 	mov	ebp, esp
  403ccb:	8b 45 18 	mov	eax, dword ptr [ebp + 24]
  403cce:	6a 1c 	push	28
  403cd0:	6a 01 	push	1
  403cd2:	ff 70 28 	push	dword ptr [eax + 40]
  403cd5:	ff 50 20 	call	dword ptr [eax + 32]
  403cd8:	83 c4 0c 	add	esp, 12
  403cdb:	85 c0 	test	eax, eax
  403cdd:	74 1b 	je	27 <.text+0x2CFA>
  403cdf:	8a 4d 08 	mov	cl, byte ptr [ebp + 8]
  403ce2:	83 20 00 	and	dword ptr [eax], 0
  403ce5:	88 48 10 	mov	byte ptr [eax + 16], cl
  403ce8:	8a 4d 0c 	mov	cl, byte ptr [ebp + 12]
  403ceb:	88 48 11 	mov	byte ptr [eax + 17], cl
  403cee:	8b 4d 10 	mov	ecx, dword ptr [ebp + 16]
  403cf1:	89 48 14 	mov	dword ptr [eax + 20], ecx
  403cf4:	8b 4d 14 	mov	ecx, dword ptr [ebp + 20]
  403cf7:	89 48 18 	mov	dword ptr [eax + 24], ecx
  403cfa:	5d 	pop	ebp
  403cfb:	c3 	ret
  403cfc:	55 	push	ebp
  403cfd:	8b ec 	mov	ebp, esp
  403cff:	83 ec 18 	sub	esp, 24
  403d02:	53 	push	ebx
  403d03:	56 	push	esi
  403d04:	8b 75 0c 	mov	esi, dword ptr [ebp + 12]
  403d07:	57 	push	edi
  403d08:	8b 7d 08 	mov	edi, dword ptr [ebp + 8]
  403d0b:	8b 06 	mov	eax, dword ptr [esi]
  403d0d:	89 45 fc 	mov	dword ptr [ebp - 4], eax
  403d10:	8b 46 04 	mov	eax, dword ptr [esi + 4]
  403d13:	8b 57 34 	mov	edx, dword ptr [edi + 52]
  403d16:	89 45 f8 	mov	dword ptr [ebp - 8], eax
  403d19:	8b 47 20 	mov	eax, dword ptr [edi + 32]
  403d1c:	8b 5f 04 	mov	ebx, dword ptr [edi + 4]
  403d1f:	89 45 0c 	mov	dword ptr [ebp + 12], eax
  403d22:	8b 47 1c 	mov	eax, dword ptr [edi + 28]
  403d25:	89 45 08 	mov	dword ptr [ebp + 8], eax
  403d28:	8b 47 30 	mov	eax, dword ptr [edi + 48]
  403d2b:	3b d0 	cmp	edx, eax
  403d2d:	73 05 	jae	5 <.text+0x2D34>
  403d2f:	2b c2 	sub	eax, edx
  403d31:	48 	dec	eax
  403d32:	eb 05 	jmp	5 <.text+0x2D39>
  403d34:	8b 47 2c 	mov	eax, dword ptr [edi + 44]
  403d37:	2b c2 	sub	eax, edx
  403d39:	89 45 f4 	mov	dword ptr [ebp - 12], eax
  403d3c:	8b 0b 	mov	ecx, dword ptr [ebx]
  403d3e:	83 f9 09 	cmp	ecx, 9
  403d41:	0f 87 0e 05 00 00 	ja	1294 <.text+0x3255>
  403d47:	ff 24 8d 87 42 40 00 	jmp	dword ptr [4*ecx + 4211335]
  403d4e:	3d 02 01 00 00 	cmp	eax, 258
  403d53:	0f 82 91 00 00 00 	jb	145 <.text+0x2DEA>
  403d59:	83 7d f8 0a 	cmp	dword ptr [ebp - 8], 10
  403d5d:	0f 82 87 00 00 00 	jb	135 <.text+0x2DEA>
  403d63:	8b 45 0c 	mov	eax, dword ptr [ebp + 12]
  403d66:	56 	push	esi
  403d67:	89 47 20 	mov	dword ptr [edi + 32], eax
  403d6a:	8b 45 08 	mov	eax, dword ptr [ebp + 8]
  403d6d:	89 47 1c 	mov	dword ptr [edi + 28], eax
  403d70:	8b 45 f8 	mov	eax, dword ptr [ebp - 8]
  403d73:	89 46 04 	mov	dword ptr [esi + 4], eax
  403d76:	8b 45 fc 	mov	eax, dword ptr [ebp - 4]
  403d79:	8b c8 	mov	ecx, eax
  403d7b:	57 	push	edi
  403d7c:	2b 0e 	sub	ecx, dword ptr [esi]
  403d7e:	89 06 	mov	dword ptr [esi], eax
  403d80:	01 4e 08 	add	dword ptr [esi + 8], ecx
  403d83:	89 57 34 	mov	dword ptr [edi + 52], edx
  403d86:	ff 73 18 	push	dword ptr [ebx + 24]
  403d89:	0f b6 43 11 	movzx	eax, byte ptr [ebx + 17]
  403d8d:	ff 73 14 	push	dword ptr [ebx + 20]
  403d90:	50 	push	eax
  403d91:	0f b6 43 10 	movzx	eax, byte ptr [ebx + 16]
  403d95:	50 	push	eax
  403d96:	e8 b2 13 00 00 	call	5042 <.text+0x414D>
  403d9b:	89 45 10 	mov	dword ptr [ebp + 16], eax
  403d9e:	8b 06 	mov	eax, dword ptr [esi]
  403da0:	89 45 fc 	mov	dword ptr [ebp - 4], eax
  403da3:	8b 46 04 	mov	eax, dword ptr [esi + 4]
  403da6:	8b 57 34 	mov	edx, dword ptr [edi + 52]
  403da9:	89 45 f8 	mov	dword ptr [ebp - 8], eax
  403dac:	8b 47 20 	mov	eax, dword ptr [edi + 32]
  403daf:	83 c4 18 	add	esp, 24
  403db2:	89 45 0c 	mov	dword ptr [ebp + 12], eax
  403db5:	8b 47 1c 	mov	eax, dword ptr [edi + 28]
  403db8:	89 45 08 	mov	dword ptr [ebp + 8], eax
  403dbb:	8b 47 30 	mov	eax, dword ptr [edi + 48]
  403dbe:	3b d0 	cmp	edx, eax
  403dc0:	73 05 	jae	5 <.text+0x2DC7>
  403dc2:	2b c2 	sub	eax, edx
  403dc4:	48 	dec	eax
  403dc5:	eb 05 	jmp	5 <.text+0x2DCC>
  403dc7:	8b 47 2c 	mov	eax, dword ptr [edi + 44]
  403dca:	2b c2 	sub	eax, edx
  403dcc:	83 7d 10 00 	cmp	dword ptr [ebp + 16], 0
  403dd0:	89 45 f4 	mov	dword ptr [ebp - 12], eax
  403dd3:	74 15 	je	21 <.text+0x2DEA>
  403dd5:	8b 4d 10 	mov	ecx, dword ptr [ebp + 16]
  403dd8:	49 	dec	ecx
  403dd9:	f7 d9 	neg	ecx
  403ddb:	1b c9 	sbb	ecx, ecx
  403ddd:	83 e1 02 	and	ecx, 2
  403de0:	83 c1 07 	add	ecx, 7
  403de3:	89 0b 	mov	dword ptr [ebx], ecx
  403de5:	e9 52 ff ff ff 	jmp	-174 <.text+0x2D3C>
  403dea:	0f b6 43 10 	movzx	eax, byte ptr [ebx + 16]
  403dee:	89 43 0c 	mov	dword ptr [ebx + 12], eax
  403df1:	8b 43 14 	mov	eax, dword ptr [ebx + 20]
  403df4:	89 43 08 	mov	dword ptr [ebx + 8], eax
  403df7:	c7 03 01 00 00 00 	mov	dword ptr [ebx], 1
  403dfd:	8b 43 0c 	mov	eax, dword ptr [ebx + 12]
  403e00:	39 45 08 	cmp	dword ptr [ebp + 8], eax
  403e03:	73 28 	jae	40 <.text+0x2E2D>
  403e05:	83 7d f8 00 	cmp	dword ptr [ebp - 8], 0
  403e09:	0f 84 50 03 00 00 	je	848 <.text+0x315F>
  403e0f:	8b 45 fc 	mov	eax, dword ptr [ebp - 4]
  403e12:	8b 4d 08 	mov	ecx, dword ptr [ebp + 8]
  403e15:	83 65 10 00 	and	dword ptr [ebp + 16], 0
  403e19:	ff 4d f8 	dec	dword ptr [ebp - 8]
  403e1c:	0f b6 00 	movzx	eax, byte ptr [eax]
  403e1f:	d3 e0 	shl	eax, cl
  403e21:	09 45 0c 	or	dword ptr [ebp + 12], eax
  403e24:	ff 45 fc 	inc	dword ptr [ebp - 4]
  403e27:	83 45 08 08 	add	dword ptr [ebp + 8], 8
  403e2b:	eb d0 	jmp	-48 <.text+0x2DFD>
  403e2d:	8b 04 85 a8 bc 40 00 	mov	eax, dword ptr [4*eax + 4242600]
  403e34:	8b 4b 08 	mov	ecx, dword ptr [ebx + 8]
  403e37:	23 45 0c 	and	eax, dword ptr [ebp + 12]
  403e3a:	8d 04 c1 	lea	eax, [ecx + 8*eax]
  403e3d:	89 45 ec 	mov	dword ptr [ebp - 20], eax
  403e40:	0f b6 48 01 	movzx	ecx, byte ptr [eax + 1]
  403e44:	0f b6 40 01 	movzx	eax, byte ptr [eax + 1]
  403e48:	d3 6d 0c 	shr	dword ptr [ebp + 12], cl
  403e4b:	8b 4d ec 	mov	ecx, dword ptr [ebp - 20]
  403e4e:	29 45 08 	sub	dword ptr [ebp + 8], eax
  403e51:	0f b6 01 	movzx	eax, byte ptr [ecx]
  403e54:	85 c0 	test	eax, eax
  403e56:	75 14 	jne	20 <.text+0x2E6C>
  403e58:	8b 41 04 	mov	eax, dword ptr [ecx + 4]
  403e5b:	c7 03 06 00 00 00 	mov	dword ptr [ebx], 6
  403e61:	89 43 08 	mov	dword ptr [ebx + 8], eax
  403e64:	8b 45 f4 	mov	eax, dword ptr [ebp - 12]
  403e67:	e9 d0 fe ff ff 	jmp	-304 <.text+0x2D3C>
  403e6c:	a8 10 	test	al, 16
  403e6e:	74 14 	je	20 <.text+0x2E84>
  403e70:	83 e0 0f 	and	eax, 15
  403e73:	89 43 08 	mov	dword ptr [ebx + 8], eax
  403e76:	8b 41 04 	mov	eax, dword ptr [ecx + 4]
  403e79:	89 43 04 	mov	dword ptr [ebx + 4], eax
  403e7c:	c7 03 02 00 00 00 	mov	dword ptr [ebx], 2
  403e82:	eb e0 	jmp	-32 <.text+0x2E64>
  403e84:	a8 40 	test	al, 64
  403e86:	0f 84 e5 00 00 00 	je	229 <.text+0x2F71>
  403e8c:	a8 20 	test	al, 32
  403e8e:	0f 84 dd 02 00 00 	je	733 <.text+0x3171>
  403e94:	c7 03 07 00 00 00 	mov	dword ptr [ebx], 7
  403e9a:	eb c8 	jmp	-56 <.text+0x2E64>
  403e9c:	8b 43 08 	mov	eax, dword ptr [ebx + 8]
  403e9f:	39 45 08 	cmp	dword ptr [ebp + 8], eax
  403ea2:	73 28 	jae	40 <.text+0x2ECC>
  403ea4:	83 7d f8 00 	cmp	dword ptr [ebp - 8], 0
  403ea8:	0f 84 b1 02 00 00 	je	689 <.text+0x315F>
  403eae:	8b 45 fc 	mov	eax, dword ptr [ebp - 4]
  403eb1:	8b 4d 08 	mov	ecx, dword ptr [ebp + 8]
  403eb4:	83 65 10 00 	and	dword ptr [ebp + 16], 0
  403eb8:	ff 4d f8 	dec	dword ptr [ebp - 8]
  403ebb:	0f b6 00 	movzx	eax, byte ptr [eax]
  403ebe:	d3 e0 	shl	eax, cl
  403ec0:	09 45 0c 	or	dword ptr [ebp + 12], eax
  403ec3:	ff 45 fc 	inc	dword ptr [ebp - 4]
  403ec6:	83 45 08 08 	add	dword ptr [ebp + 8], 8
  403eca:	eb d0 	jmp	-48 <.text+0x2E9C>
  403ecc:	8b 04 85 a8 bc 40 00 	mov	eax, dword ptr [4*eax + 4242600]
  403ed3:	8b 4b 08 	mov	ecx, dword ptr [ebx + 8]
  403ed6:	23 45 0c 	and	eax, dword ptr [ebp + 12]
  403ed9:	c7 03 03 00 00 00 	mov	dword ptr [ebx], 3
  403edf:	d3 6d 0c 	shr	dword ptr [ebp + 12], cl
  403ee2:	01 43 04 	add	dword ptr [ebx + 4], eax
  403ee5:	8b c1 	mov	eax, ecx
  403ee7:	29 45 08 	sub	dword ptr [ebp + 8], eax
  403eea:	0f b6 43 11 	movzx	eax, byte ptr [ebx + 17]
  403eee:	89 43 0c 	mov	dword ptr [ebx + 12], eax
  403ef1:	8b 43 18 	mov	eax, dword ptr [ebx + 24]
  403ef4:	89 43 08 	mov	dword ptr [ebx + 8], eax
  403ef7:	8b 43 0c 	mov	eax, dword ptr [ebx + 12]
  403efa:	39 45 08 	cmp	dword ptr [ebp + 8], eax
  403efd:	73 28 	jae	40 <.text+0x2F27>
  403eff:	83 7d f8 00 	cmp	dword ptr [ebp - 8], 0
  403f03:	0f 84 56 02 00 00 	je	598 <.text+0x315F>
  403f09:	8b 45 fc 	mov	eax, dword ptr [ebp - 4]
  403f0c:	8b 4d 08 	mov	ecx, dword ptr [ebp + 8]
  403f0f:	83 65 10 00 	and	dword ptr [ebp + 16], 0
  403f13:	ff 4d f8 	dec	dword ptr [ebp - 8]
  403f16:	0f b6 00 	movzx	eax, byte ptr [eax]
  403f19:	d3 e0 	shl	eax, cl
  403f1b:	09 45 0c 	or	dword ptr [ebp + 12], eax
  403f1e:	ff 45 fc 	inc	dword ptr [ebp - 4]
  403f21:	83 45 08 08 	add	dword ptr [ebp + 8], 8
  403f25:	eb d0 	jmp	-48 <.text+0x2EF7>
  403f27:	8b 04 85 a8 bc 40 00 	mov	eax, dword ptr [4*eax + 4242600]
  403f2e:	8b 4b 08 	mov	ecx, dword ptr [ebx + 8]
  403f31:	23 45 0c 	and	eax, dword ptr [ebp + 12]
  403f34:	8d 04 c1 	lea	eax, [ecx + 8*eax]
  403f37:	89 45 ec 	mov	dword ptr [ebp - 20], eax
  403f3a:	0f b6 48 01 	movzx	ecx, byte ptr [eax + 1]
  403f3e:	0f b6 40 01 	movzx	eax, byte ptr [eax + 1]
  403f42:	d3 6d 0c 	shr	dword ptr [ebp + 12], cl
  403f45:	8b 4d ec 	mov	ecx, dword ptr [ebp - 20]
  403f48:	29 45 08 	sub	dword ptr [ebp + 8], eax
  403f4b:	0f b6 01 	movzx	eax, byte ptr [ecx]
  403f4e:	a8 10 	test	al, 16
  403f50:	74 17 	je	23 <.text+0x2F69>
  403f52:	83 e0 0f 	and	eax, 15
  403f55:	89 43 08 	mov	dword ptr [ebx + 8], eax
  403f58:	8b 41 04 	mov	eax, dword ptr [ecx + 4]
  403f5b:	89 43 0c 	mov	dword ptr [ebx + 12], eax
  403f5e:	c7 03 04 00 00 00 	mov	dword ptr [ebx], 4
  403f64:	e9 fb fe ff ff 	jmp	-261 <.text+0x2E64>
  403f69:	a8 40 	test	al, 64
  403f6b:	0f 85 35 02 00 00 	jne	565 <.text+0x31A6>
  403f71:	89 43 0c 	mov	dword ptr [ebx + 12], eax
  403f74:	8b 41 04 	mov	eax, dword ptr [ecx + 4]
  403f77:	8d 04 c1 	lea	eax, [ecx + 8*eax]
  403f7a:	89 43 08 	mov	dword ptr [ebx + 8], eax
  403f7d:	e9 e2 fe ff ff 	jmp	-286 <.text+0x2E64>
  403f82:	8b 43 08 	mov	eax, dword ptr [ebx + 8]
  403f85:	39 45 08 	cmp	dword ptr [ebp + 8], eax
  403f88:	73 28 	jae	40 <.text+0x2FB2>
  403f8a:	83 7d f8 00 	cmp	dword ptr [ebp - 8], 0
  403f8e:	0f 84 cb 01 00 00 	je	459 <.text+0x315F>
  403f94:	8b 45 fc 	mov	eax, dword ptr [ebp - 4]
  403f97:	8b 4d 08 	mov	ecx, dword ptr [ebp + 8]
  403f9a:	83 65 10 00 	and	dword ptr [ebp + 16], 0
  403f9e:	ff 4d f8 	dec	dword ptr [ebp - 8]
  403fa1:	0f b6 00 	movzx	eax, byte ptr [eax]
  403fa4:	d3 e0 	shl	eax, cl
  403fa6:	09 45 0c 	or	dword ptr [ebp + 12], eax
  403fa9:	ff 45 fc 	inc	dword ptr [ebp - 4]
  403fac:	83 45 08 08 	add	dword ptr [ebp + 8], 8
  403fb0:	eb d0 	jmp	-48 <.text+0x2F82>
  403fb2:	8b 04 85 a8 bc 40 00 	mov	eax, dword ptr [4*eax + 4242600]
  403fb9:	8b 4b 08 	mov	ecx, dword ptr [ebx + 8]
  403fbc:	23 45 0c 	and	eax, dword ptr [ebp + 12]
  403fbf:	c7 03 05 00 00 00 	mov	dword ptr [ebx], 5
  403fc5:	d3 6d 0c 	shr	dword ptr [ebp + 12], cl
  403fc8:	01 43 0c 	add	dword ptr [ebx + 12], eax
  403fcb:	8b c1 	mov	eax, ecx
  403fcd:	29 45 08 	sub	dword ptr [ebp + 8], eax
  403fd0:	8b 4f 28 	mov	ecx, dword ptr [edi + 40]
  403fd3:	8b c2 	mov	eax, edx
  403fd5:	2b 43 0c 	sub	eax, dword ptr [ebx + 12]
  403fd8:	3b c1 	cmp	eax, ecx
  403fda:	89 45 f0 	mov	dword ptr [ebp - 16], eax
  403fdd:	73 16 	jae	22 <.text+0x2FF5>
  403fdf:	8b 47 2c 	mov	eax, dword ptr [edi + 44]
  403fe2:	2b c1 	sub	eax, ecx
  403fe4:	89 45 e8 	mov	dword ptr [ebp - 24], eax
  403fe7:	8b 45 f0 	mov	eax, dword ptr [ebp - 16]
  403fea:	03 45 e8 	add	eax, dword ptr [ebp - 24]
  403fed:	3b 47 28 	cmp	eax, dword ptr [edi + 40]
  403ff0:	89 45 f0 	mov	dword ptr [ebp - 16], eax
  403ff3:	72 f2 	jb	-14 <.text+0x2FE7>
  403ff5:	83 7b 04 00 	cmp	dword ptr [ebx + 4], 0
  403ff9:	8b 45 f4 	mov	eax, dword ptr [ebp - 12]
  403ffc:	0f 84 55 01 00 00 	je	341 <.text+0x3157>
  404002:	85 c0 	test	eax, eax
  404004:	0f 85 86 00 00 00 	jne	134 <.text+0x3090>
  40400a:	8b 47 2c 	mov	eax, dword ptr [edi + 44]
  40400d:	3b d0 	cmp	edx, eax
  40400f:	89 45 ec 	mov	dword ptr [ebp - 20], eax
  404012:	75 1e 	jne	30 <.text+0x3032>
  404014:	8b 47 30 	mov	eax, dword ptr [edi + 48]
  404017:	8b 4f 28 	mov	ecx, dword ptr [edi + 40]
  40401a:	3b c1 	cmp	eax, ecx
  40401c:	74 14 	je	20 <.text+0x3032>
  40401e:	8b d1 	mov	edx, ecx
  404020:	3b d0 	cmp	edx, eax
  404022:	73 05 	jae	5 <.text+0x3029>
  404024:	2b c2 	sub	eax, edx
  404026:	48 	dec	eax
  404027:	eb 05 	jmp	5 <.text+0x302E>
  404029:	8b 45 ec 	mov	eax, dword ptr [ebp - 20]
  40402c:	2b c2 	sub	eax, edx
  40402e:	85 c0 	test	eax, eax
  404030:	75 5e 	jne	94 <.text+0x3090>
  404032:	ff 75 10 	push	dword ptr [ebp + 16]
  404035:	89 57 34 	mov	dword ptr [edi + 52], edx
  404038:	56 	push	esi
  404039:	57 	push	edi
  40403a:	e8 97 fb ff ff 	call	-1129 <.text+0x2BD6>
  40403f:	8b 57 34 	mov	edx, dword ptr [edi + 52]
  404042:	89 45 10 	mov	dword ptr [ebp + 16], eax
  404045:	8b 47 30 	mov	eax, dword ptr [edi + 48]
  404048:	83 c4 0c 	add	esp, 12
  40404b:	3b d0 	cmp	edx, eax
  40404d:	89 45 e8 	mov	dword ptr [ebp - 24], eax
  404050:	73 05 	jae	5 <.text+0x3057>
  404052:	2b c2 	sub	eax, edx
  404054:	48 	dec	eax
  404055:	eb 05 	jmp	5 <.text+0x305C>
  404057:	8b 47 2c 	mov	eax, dword ptr [edi + 44]
  40405a:	2b c2 	sub	eax, edx
  40405c:	8b 4f 2c 	mov	ecx, dword ptr [edi + 44]
  40405f:	89 45 f4 	mov	dword ptr [ebp - 12], eax
  404062:	3b d1 	cmp	edx, ecx
  404064:	89 4d ec 	mov	dword ptr [ebp - 20], ecx
  404067:	75 1f 	jne	31 <.text+0x3088>
  404069:	8b 4f 28 	mov	ecx, dword ptr [edi + 40]
  40406c:	8b 45 e8 	mov	eax, dword ptr [ebp - 24]
  40406f:	3b c1 	cmp	eax, ecx
  404071:	74 12 	je	18 <.text+0x3085>
  404073:	8b d1 	mov	edx, ecx
  404075:	3b d0 	cmp	edx, eax
  404077:	73 05 	jae	5 <.text+0x307E>
  404079:	2b c2 	sub	eax, edx
  40407b:	48 	dec	eax
  40407c:	eb 0a 	jmp	10 <.text+0x3088>
  40407e:	8b 45 ec 	mov	eax, dword ptr [ebp - 20]
  404081:	2b c2 	sub	eax, edx
  404083:	eb 03 	jmp	3 <.text+0x3088>
  404085:	8b 45 f4 	mov	eax, dword ptr [ebp - 12]
  404088:	85 c0 	test	eax, eax
  40408a:	0f 84 25 01 00 00 	je	293 <.text+0x31B5>
  404090:	8b 4d f0 	mov	ecx, dword ptr [ebp - 16]
  404093:	83 65 10 00 	and	dword ptr [ebp + 16], 0
  404097:	8a 09 	mov	cl, byte ptr [ecx]
  404099:	88 0a 	mov	byte ptr [edx], cl
  40409b:	42 	inc	edx
  40409c:	ff 45 f0 	inc	dword ptr [ebp - 16]
  40409f:	48 	dec	eax
  4040a0:	8b 4d f0 	mov	ecx, dword ptr [ebp - 16]
  4040a3:	89 45 f4 	mov	dword ptr [ebp - 12], eax
  4040a6:	3b 4f 2c 	cmp	ecx, dword ptr [edi + 44]
  4040a9:	75 06 	jne	6 <.text+0x30B1>
  4040ab:	8b 4f 28 	mov	ecx, dword ptr [edi + 40]
  4040ae:	89 4d f0 	mov	dword ptr [ebp - 16], ecx
  4040b1:	ff 4b 04 	dec	dword ptr [ebx + 4]
  4040b4:	0f 85 48 ff ff ff 	jne	-184 <.text+0x3002>
  4040ba:	e9 98 00 00 00 	jmp	152 <.text+0x3157>
  4040bf:	85 c0 	test	eax, eax
  4040c1:	0f 85 82 00 00 00 	jne	130 <.text+0x3149>
  4040c7:	8b 47 2c 	mov	eax, dword ptr [edi + 44]
  4040ca:	3b d0 	cmp	edx, eax
  4040cc:	89 45 ec 	mov	dword ptr [ebp - 20], eax
  4040cf:	75 1e 	jne	30 <.text+0x30EF>
  4040d1:	8b 47 30 	mov	eax, dword ptr [edi + 48]
  4040d4:	8b 4f 28 	mov	ecx, dword ptr [edi + 40]
  4040d7:	3b c1 	cmp	eax, ecx
  4040d9:	74 14 	je	20 <.text+0x30EF>
  4040db:	8b d1 	mov	edx, ecx
  4040dd:	3b d0 	cmp	edx, eax
  4040df:	73 05 	jae	5 <.text+0x30E6>
  4040e1:	2b c2 	sub	eax, edx
  4040e3:	48 	dec	eax
  4040e4:	eb 05 	jmp	5 <.text+0x30EB>
  4040e6:	8b 45 ec 	mov	eax, dword ptr [ebp - 20]
  4040e9:	2b c2 	sub	eax, edx
  4040eb:	85 c0 	test	eax, eax
  4040ed:	75 5a 	jne	90 <.text+0x3149>
  4040ef:	ff 75 10 	push	dword ptr [ebp + 16]
  4040f2:	89 57 34 	mov	dword ptr [edi + 52], edx
  4040f5:	56 	push	esi
  4040f6:	57 	push	edi
  4040f7:	e8 da fa ff ff 	call	-1318 <.text+0x2BD6>
  4040fc:	8b 57 34 	mov	edx, dword ptr [edi + 52]
  4040ff:	89 45 10 	mov	dword ptr [ebp + 16], eax
  404102:	8b 47 30 	mov	eax, dword ptr [edi + 48]
  404105:	83 c4 0c 	add	esp, 12
  404108:	3b d0 	cmp	edx, eax
  40410a:	89 45 e8 	mov	dword ptr [ebp - 24], eax
  40410d:	73 05 	jae	5 <.text+0x3114>
  40410f:	2b c2 	sub	eax, edx
  404111:	48 	dec	eax
  404112:	eb 05 	jmp	5 <.text+0x3119>
  404114:	8b 47 2c 	mov	eax, dword ptr [edi + 44]
  404117:	2b c2 	sub	eax, edx
  404119:	8b 4f 2c 	mov	ecx, dword ptr [edi + 44]
  40411c:	89 45 f4 	mov	dword ptr [ebp - 12], eax
  40411f:	3b d1 	cmp	edx, ecx
  404121:	89 4d ec 	mov	dword ptr [ebp - 20], ecx
  404124:	75 1f 	jne	31 <.text+0x3145>
  404126:	8b 4f 28 	mov	ecx, dword ptr [edi + 40]
  404129:	8b 45 e8 	mov	eax, dword ptr [ebp - 24]
  40412c:	3b c1 	cmp	eax, ecx
  40412e:	74 12 	je	18 <.text+0x3142>
  404130:	8b d1 	mov	edx, ecx
  404132:	3b d0 	cmp	edx, eax
  404134:	73 05 	jae	5 <.text+0x313B>
  404136:	2b c2 	sub	eax, edx
  404138:	48 	dec	eax
  404139:	eb 0a 	jmp	10 <.text+0x3145>
  40413b:	8b 45 ec 	mov	eax, dword ptr [ebp - 20]
  40413e:	2b c2 	sub	eax, edx
  404140:	eb 03 	jmp	3 <.text+0x3145>
  404142:	8b 45 f4 	mov	eax, dword ptr [ebp - 12]
  404145:	85 c0 	test	eax, eax
  404147:	74 6c 	je	108 <.text+0x31B5>
  404149:	8a 4b 08 	mov	cl, byte ptr [ebx + 8]
  40414c:	83 65 10 00 	and	dword ptr [ebp + 16], 0
  404150:	88 0a 	mov	byte ptr [edx], cl
  404152:	42 	inc	edx
  404153:	48 	dec	eax
  404154:	89 45 f4 	mov	dword ptr [ebp - 12], eax
  404157:	83 23 00 	and	dword ptr [ebx], 0
  40415a:	e9 dd fb ff ff 	jmp	-1059 <.text+0x2D3C>
  40415f:	8b 45 0c 	mov	eax, dword ptr [ebp + 12]
  404162:	89 47 20 	mov	dword ptr [edi + 32], eax
  404165:	8b 45 08 	mov	eax, dword ptr [ebp + 8]
  404168:	89 47 1c 	mov	dword ptr [edi + 28], eax
  40416b:	83 66 04 00 	and	dword ptr [esi + 4], 0
  40416f:	eb 56 	jmp	86 <.text+0x31C7>
  404171:	c7 03 09 00 00 00 	mov	dword ptr [ebx], 9
  404177:	c7 46 18 30 f6 40 00 	mov	dword ptr [esi + 24], 4257328
  40417e:	8b 45 0c 	mov	eax, dword ptr [ebp + 12]
  404181:	6a fd 	push	-3
  404183:	89 47 20 	mov	dword ptr [edi + 32], eax
  404186:	8b 45 08 	mov	eax, dword ptr [ebp + 8]
  404189:	89 47 1c 	mov	dword ptr [edi + 28], eax
  40418c:	8b 45 f8 	mov	eax, dword ptr [ebp - 8]
  40418f:	89 46 04 	mov	dword ptr [esi + 4], eax
  404192:	8b 45 fc 	mov	eax, dword ptr [ebp - 4]
  404195:	8b c8 	mov	ecx, eax
  404197:	2b 0e 	sub	ecx, dword ptr [esi]
  404199:	89 06 	mov	dword ptr [esi], eax
  40419b:	01 4e 08 	add	dword ptr [esi + 8], ecx
  40419e:	89 57 34 	mov	dword ptr [edi + 52], edx
  4041a1:	e9 d2 00 00 00 	jmp	210 <.text+0x3278>
  4041a6:	c7 03 09 00 00 00 	mov	dword ptr [ebx], 9
  4041ac:	c7 46 18 18 f6 40 00 	mov	dword ptr [esi + 24], 4257304
  4041b3:	eb c9 	jmp	-55 <.text+0x317E>
  4041b5:	8b 45 0c 	mov	eax, dword ptr [ebp + 12]
  4041b8:	89 47 20 	mov	dword ptr [edi + 32], eax
  4041bb:	8b 45 08 	mov	eax, dword ptr [ebp + 8]
  4041be:	89 47 1c 	mov	dword ptr [edi + 28], eax
  4041c1:	8b 45 f8 	mov	eax, dword ptr [ebp - 8]
  4041c4:	89 46 04 	mov	dword ptr [esi + 4], eax
  4041c7:	8b 45 fc 	mov	eax, dword ptr [ebp - 4]
  4041ca:	ff 75 10 	push	dword ptr [ebp + 16]
  4041cd:	8b c8 	mov	ecx, eax
  4041cf:	2b 0e 	sub	ecx, dword ptr [esi]
  4041d1:	89 06 	mov	dword ptr [esi], eax
  4041d3:	01 4e 08 	add	dword ptr [esi + 8], ecx
  4041d6:	89 57 34 	mov	dword ptr [edi + 52], edx
  4041d9:	e9 9a 00 00 00 	jmp	154 <.text+0x3278>
  4041de:	83 7d 08 07 	cmp	dword ptr [ebp + 8], 7
  4041e2:	76 0a 	jbe	10 <.text+0x31EE>
  4041e4:	83 6d 08 08 	sub	dword ptr [ebp + 8], 8
  4041e8:	ff 45 f8 	inc	dword ptr [ebp - 8]
  4041eb:	ff 4d fc 	dec	dword ptr [ebp - 4]
  4041ee:	ff 75 10 	push	dword ptr [ebp + 16]
  4041f1:	89 57 34 	mov	dword ptr [edi + 52], edx
  4041f4:	56 	push	esi
  4041f5:	57 	push	edi
  4041f6:	e8 db f9 ff ff 	call	-1573 <.text+0x2BD6>
  4041fb:	8b 57 34 	mov	edx, dword ptr [edi + 52]
  4041fe:	83 c4 0c 	add	esp, 12
  404201:	39 57 30 	cmp	dword ptr [edi + 48], edx
  404204:	74 24 	je	36 <.text+0x322A>
  404206:	8b 4d 0c 	mov	ecx, dword ptr [ebp + 12]
  404209:	50 	push	eax
  40420a:	89 4f 20 	mov	dword ptr [edi + 32], ecx
  40420d:	8b 4d 08 	mov	ecx, dword ptr [ebp + 8]
  404210:	89 4f 1c 	mov	dword ptr [edi + 28], ecx
  404213:	8b 4d f8 	mov	ecx, dword ptr [ebp - 8]
  404216:	89 4e 04 	mov	dword ptr [esi + 4], ecx
  404219:	8b 4d fc 	mov	ecx, dword ptr [ebp - 4]
  40421c:	8b d9 	mov	ebx, ecx
  40421e:	2b 1e 	sub	ebx, dword ptr [esi]
  404220:	89 0e 	mov	dword ptr [esi], ecx
  404222:	01 5e 08 	add	dword ptr [esi + 8], ebx
  404225:	89 57 34 	mov	dword ptr [edi + 52], edx
  404228:	eb 4e 	jmp	78 <.text+0x3278>
  40422a:	c7 03 08 00 00 00 	mov	dword ptr [ebx], 8
  404230:	8b 45 0c 	mov	eax, dword ptr [ebp + 12]
  404233:	6a 01 	push	1
  404235:	89 47 20 	mov	dword ptr [edi + 32], eax
  404238:	8b 45 08 	mov	eax, dword ptr [ebp + 8]
  40423b:	89 47 1c 	mov	dword ptr [edi + 28], eax
  40423e:	8b 45 f8 	mov	eax, dword ptr [ebp - 8]
  404241:	89 46 04 	mov	dword ptr [esi + 4], eax
  404244:	8b 45 fc 	mov	eax, dword ptr [ebp - 4]
  404247:	8b c8 	mov	ecx, eax
  404249:	2b 0e 	sub	ecx, dword ptr [esi]
  40424b:	89 06 	mov	dword ptr [esi], eax
  40424d:	01 4e 08 	add	dword ptr [esi + 8], ecx
  404250:	89 57 34 	mov	dword ptr [edi + 52], edx
  404253:	eb 23 	jmp	35 <.text+0x3278>
  404255:	8b 45 0c 	mov	eax, dword ptr [ebp + 12]
  404258:	6a fe 	push	-2
  40425a:	89 47 20 	mov	dword ptr [edi + 32], eax
  40425d:	8b 45 08 	mov	eax, dword ptr [ebp + 8]
  404260:	89 47 1c 	mov	dword ptr [edi + 28], eax
  404263:	8b 45 f8 	mov	eax, dword ptr [ebp - 8]
  404266:	89 46 04 	mov	dword ptr [esi + 4], eax
  404269:	8b 45 fc 	mov	eax, dword ptr [ebp - 4]
  40426c:	8b c8 	mov	ecx, eax
  40426e:	2b 0e 	sub	ecx, dword ptr [esi]
  404270:	89 06 	mov	dword ptr [esi], eax
  404272:	01 4e 08 	add	dword ptr [esi + 8], ecx
  404275:	89 57 34 	mov	dword ptr [edi + 52], edx
  404278:	56 	push	esi
  404279:	57 	push	edi
  40427a:	e8 57 f9 ff ff 	call	-1705 <.text+0x2BD6>
  40427f:	83 c4 0c 	add	esp, 12
  404282:	5f 	pop	edi
  404283:	5e 	pop	esi
  404284:	5b 	pop	ebx
  404285:	c9 	leave
  404286:	c3 	ret
  404287:	4e 	dec	esi
  404288:	3d 40 00 fd 3d 	cmp	eax, 1039990848
  40428d:	40 	inc	eax
  40428e:	00 9c 3e 40 00 f7 3e 	add	byte ptr [esi + edi + 1056374848], bl
  404295:	40 	inc	eax
  404296:	00 82 3f 40 00 d0 	add	byte ptr [edx - 805289921], al
  40429c:	3f 	aas
  40429d:	40 	inc	eax
  40429e:	00 bf 40 40 00 de 	add	byte ptr [edi - 570408896], bh
  4042a4:	41 	inc	ecx
  4042a5:	40 	inc	eax
  4042a6:	00 30 	add	byte ptr [eax], dh
  4042a8:	42 	inc	edx
  4042a9:	40 	inc	eax
  4042aa:	00 7e 41 	add	byte ptr [esi + 65], bh
  4042ad:	40 	inc	eax
  4042ae:	00 ff 	add	bh, bh
  4042b0:	74 24 	je	36 <.text+0x32D6>
  4042b2:	04 8b 	add	al, -117
  4042b4:	44 	inc	esp
  4042b5:	24 0c 	and	al, 12
  4042b7:	ff 70 28 	push	dword ptr [eax + 40]
  4042ba:	ff 50 24 	call	dword ptr [eax + 36]
  4042bd:	59 	pop	ecx
  4042be:	59 	pop	ecx
  4042bf:	c3 	ret
  4042c0:	8b 44 24 0c 	mov	eax, dword ptr [esp + 12]
  4042c4:	53 	push	ebx
  4042c5:	33 db 	xor	ebx, ebx
  4042c7:	56 	push	esi
  4042c8:	8b 74 24 0c 	mov	esi, dword ptr [esp + 12]
  4042cc:	3b c3 	cmp	eax, ebx
  4042ce:	57 	push	edi
  4042cf:	74 05 	je	5 <.text+0x32D6>
  4042d1:	8b 4e 3c 	mov	ecx, dword ptr [esi + 60]
  4042d4:	89 08 	mov	dword ptr [eax], ecx
  4042d6:	8b 06 	mov	eax, dword ptr [esi]
  4042d8:	8b 7c 24 14 	mov	edi, dword ptr [esp + 20]
  4042dc:	83 f8 04 	cmp	eax, 4
  4042df:	74 05 	je	5 <.text+0x32E6>
  4042e1:	83 f8 05 	cmp	eax, 5
  4042e4:	75 0b 	jne	11 <.text+0x32F1>
  4042e6:	ff 76 0c 	push	dword ptr [esi + 12]
  4042e9:	ff 77 28 	push	dword ptr [edi + 40]
  4042ec:	ff 57 24 	call	dword ptr [edi + 36]
  4042ef:	59 	pop	ecx
  4042f0:	59 	pop	ecx
  4042f1:	83 3e 06 	cmp	dword ptr [esi], 6
  4042f4:	75 0b 	jne	11 <.text+0x3301>
  4042f6:	57 	push	edi
  4042f7:	ff 76 04 	push	dword ptr [esi + 4]
  4042fa:	e8 b0 ff ff ff 	call	-80 <.text+0x32AF>
  4042ff:	59 	pop	ecx
  404300:	59 	pop	ecx
  404301:	8b 46 28 	mov	eax, dword ptr [esi + 40]
  404304:	89 1e 	mov	dword ptr [esi], ebx
  404306:	89 46 34 	mov	dword ptr [esi + 52], eax
  404309:	89 46 30 	mov	dword ptr [esi + 48], eax
  40430c:	8b 46 38 	mov	eax, dword ptr [esi + 56]
  40430f:	89 5e 1c 	mov	dword ptr [esi + 28], ebx
  404312:	3b c3 	cmp	eax, ebx
  404314:	89 5e 20 	mov	dword ptr [esi + 32], ebx
  404317:	74 0e 	je	14 <.text+0x3327>
  404319:	53 	push	ebx
  40431a:	53 	push	ebx
  40431b:	53 	push	ebx
  40431c:	ff d0 	call	eax
  40431e:	89 46 3c 	mov	dword ptr [esi + 60], eax
  404321:	83 c4 0c 	add	esp, 12
  404324:	89 47 30 	mov	dword ptr [edi + 48], eax
  404327:	5f 	pop	edi
  404328:	5e 	pop	esi
  404329:	5b 	pop	ebx
  40432a:	c3 	ret
  40432b:	53 	push	ebx
  40432c:	56 	push	esi
  40432d:	8b 74 24 0c 	mov	esi, dword ptr [esp + 12]
  404331:	57 	push	edi
  404332:	6a 40 	push	64
  404334:	6a 01 	push	1
  404336:	ff 76 28 	push	dword ptr [esi + 40]
  404339:	ff 56 20 	call	dword ptr [esi + 32]
  40433c:	8b f8 	mov	edi, eax
  40433e:	83 c4 0c 	add	esp, 12
  404341:	85 ff 	test	edi, edi
  404343:	74 4c 	je	76 <.text+0x3391>
  404345:	68 a0 05 00 00 	push	1440
  40434a:	6a 08 	push	8
  40434c:	ff 76 28 	push	dword ptr [esi + 40]
  40434f:	ff 56 20 	call	dword ptr [esi + 32]
  404352:	83 c4 0c 	add	esp, 12
  404355:	89 47 24 	mov	dword ptr [edi + 36], eax
  404358:	85 c0 	test	eax, eax
  40435a:	75 0b 	jne	11 <.text+0x3367>
  40435c:	57 	push	edi
  40435d:	ff 76 28 	push	dword ptr [esi + 40]
  404360:	ff 56 24 	call	dword ptr [esi + 36]
  404363:	59 	pop	ecx
  404364:	59 	pop	ecx
  404365:	eb 2a 	jmp	42 <.text+0x3391>
  404367:	8b 5c 24 18 	mov	ebx, dword ptr [esp + 24]
  40436b:	53 	push	ebx
  40436c:	6a 01 	push	1
  40436e:	ff 76 28 	push	dword ptr [esi + 40]
  404371:	ff 56 20 	call	dword ptr [esi + 32]
  404374:	83 c4 0c 	add	esp, 12
  404377:	89 47 28 	mov	dword ptr [edi + 40], eax
  40437a:	85 c0 	test	eax, eax
  40437c:	75 17 	jne	23 <.text+0x3395>
  40437e:	ff 77 24 	push	dword ptr [edi + 36]
  404381:	ff 76 28 	push	dword ptr [esi + 40]
  404384:	ff 56 24 	call	dword ptr [esi + 36]
  404387:	57 	push	edi
  404388:	ff 76 28 	push	dword ptr [esi + 40]
  40438b:	ff 56 24 	call	dword ptr [esi + 36]
  40438e:	83 c4 10 	add	esp, 16
  404391:	33 c0 	xor	eax, eax
  404393:	eb 1d 	jmp	29 <.text+0x33B2>
  404395:	83 27 00 	and	dword ptr [edi], 0
  404398:	03 c3 	add	eax, ebx
  40439a:	89 47 2c 	mov	dword ptr [edi + 44], eax
  40439d:	8b 44 24 14 	mov	eax, dword ptr [esp + 20]
  4043a1:	6a 00 	push	0
  4043a3:	56 	push	esi
  4043a4:	57 	push	edi
  4043a5:	89 47 38 	mov	dword ptr [edi + 56], eax
  4043a8:	e8 13 ff ff ff 	call	-237 <.text+0x32C0>
  4043ad:	83 c4 0c 	add	esp, 12
  4043b0:	8b c7 	mov	eax, edi
  4043b2:	5f 	pop	edi
  4043b3:	5e 	pop	esi
  4043b4:	5b 	pop	ebx
  4043b5:	c3 	ret
  4043b6:	55 	push	ebp
  4043b7:	8b ec 	mov	ebp, esp
  4043b9:	83 ec 2c 	sub	esp, 44
  4043bc:	53 	push	ebx
  4043bd:	56 	push	esi
  4043be:	8b 75 08 	mov	esi, dword ptr [ebp + 8]
  4043c1:	57 	push	edi
  4043c2:	8b 7d 0c 	mov	edi, dword ptr [ebp + 12]
  4043c5:	8b 56 34 	mov	edx, dword ptr [esi + 52]
  4043c8:	8b 47 04 	mov	eax, dword ptr [edi + 4]
  4043cb:	8b 1f 	mov	ebx, dword ptr [edi]
  4043cd:	89 45 fc 	mov	dword ptr [ebp - 4], eax
  4043d0:	8b 46 20 	mov	eax, dword ptr [esi + 32]
  4043d3:	89 45 08 	mov	dword ptr [ebp + 8], eax
  4043d6:	8b 46 1c 	mov	eax, dword ptr [esi + 28]
  4043d9:	89 45 0c 	mov	dword ptr [ebp + 12], eax
  4043dc:	8b 46 30 	mov	eax, dword ptr [esi + 48]
  4043df:	3b d0 	cmp	edx, eax
  4043e1:	89 55 f8 	mov	dword ptr [ebp - 8], edx
  4043e4:	73 07 	jae	7 <.text+0x33ED>
  4043e6:	2b c2 	sub	eax, edx
  4043e8:	48 	dec	eax
  4043e9:	8b c8 	mov	ecx, eax
  4043eb:	eb 05 	jmp	5 <.text+0x33F2>
  4043ed:	8b 4e 2c 	mov	ecx, dword ptr [esi + 44]
  4043f0:	2b ca 	sub	ecx, edx
  4043f2:	8b 06 	mov	eax, dword ptr [esi]
  4043f4:	89 4d f0 	mov	dword ptr [ebp - 16], ecx
  4043f7:	83 f8 09 	cmp	eax, 9
  4043fa:	0f 87 c2 05 00 00 	ja	1474 <.text+0x39C2>
  404400:	eb 06 	jmp	6 <.text+0x3408>
  404402:	8b 4d f0 	mov	ecx, dword ptr [ebp - 16]
  404405:	8b 55 f8 	mov	edx, dword ptr [ebp - 8]
  404408:	ff 24 85 bd 4b 40 00 	jmp	dword ptr [4*eax + 4213693]
  40440f:	83 7d 0c 03 	cmp	dword ptr [ebp + 12], 3
  404413:	73 23 	jae	35 <.text+0x3438>
  404415:	83 7d fc 00 	cmp	dword ptr [ebp - 4], 0
  404419:	0f 84 39 06 00 00 	je	1593 <.text+0x3A58>
  40441f:	0f b6 03 	movzx	eax, byte ptr [ebx]
  404422:	8b 4d 0c 	mov	ecx, dword ptr [ebp + 12]
  404425:	83 65 10 00 	and	dword ptr [ebp + 16], 0
  404429:	ff 4d fc 	dec	dword ptr [ebp - 4]
  40442c:	d3 e0 	shl	eax, cl
  40442e:	09 45 08 	or	dword ptr [ebp + 8], eax
  404431:	43 	inc	ebx
  404432:	83 45 0c 08 	add	dword ptr [ebp + 12], 8
  404436:	eb d7 	jmp	-41 <.text+0x340F>
  404438:	8b 45 08 	mov	eax, dword ptr [ebp + 8]
  40443b:	83 e0 07 	and	eax, 7
  40443e:	8b c8 	mov	ecx, eax
  404440:	d1 e8 	shr	eax
  404442:	83 e1 01 	and	ecx, 1
  404445:	83 e8 00 	sub	eax, 0
  404448:	89 4e 18 	mov	dword ptr [esi + 24], ecx
  40444b:	74 6c 	je	108 <.text+0x34B9>
  40444d:	48 	dec	eax
  40444e:	74 20 	je	32 <.text+0x3470>
  404450:	48 	dec	eax
  404451:	74 0c 	je	12 <.text+0x345F>
  404453:	48 	dec	eax
  404454:	0f 84 9a 05 00 00 	je	1434 <.text+0x39F4>
  40445a:	e9 58 05 00 00 	jmp	1368 <.text+0x39B7>
  40445f:	c1 6d 08 03 	shr	dword ptr [ebp + 8], 3
  404463:	6a 03 	push	3
  404465:	58 	pop	eax
  404466:	29 45 0c 	sub	dword ptr [ebp + 12], eax
  404469:	89 06 	mov	dword ptr [esi], eax
  40446b:	e9 47 05 00 00 	jmp	1351 <.text+0x39B7>
  404470:	8d 45 e8 	lea	eax, [ebp - 24]
  404473:	57 	push	edi
  404474:	50 	push	eax
  404475:	8d 45 e4 	lea	eax, [ebp - 28]
  404478:	50 	push	eax
  404479:	8d 45 e0 	lea	eax, [ebp - 32]
  40447c:	50 	push	eax
  40447d:	8d 45 dc 	lea	eax, [ebp - 36]
  404480:	50 	push	eax
  404481:	e8 9c 0c 00 00 	call	3228 <.text+0x4122>
  404486:	57 	push	edi
  404487:	ff 75 e8 	push	dword ptr [ebp - 24]
  40448a:	ff 75 e4 	push	dword ptr [ebp - 28]
  40448d:	ff 75 e0 	push	dword ptr [ebp - 32]
  404490:	ff 75 dc 	push	dword ptr [ebp - 36]
  404493:	e8 30 f8 ff ff 	call	-2000 <.text+0x2CC8>
  404498:	83 c4 28 	add	esp, 40
  40449b:	89 46 04 	mov	dword ptr [esi + 4], eax
  40449e:	85 c0 	test	eax, eax
  4044a0:	0f 84 76 06 00 00 	je	1654 <.text+0x3B1C>
  4044a6:	c1 6d 08 03 	shr	dword ptr [ebp + 8], 3
  4044aa:	83 6d 0c 03 	sub	dword ptr [ebp + 12], 3
  4044ae:	c7 06 06 00 00 00 	mov	dword ptr [esi], 6
  4044b4:	e9 fe 04 00 00 	jmp	1278 <.text+0x39B7>
  4044b9:	83 6d 0c 03 	sub	dword ptr [ebp + 12], 3
  4044bd:	8b 45 08 	mov	eax, dword ptr [ebp + 8]
  4044c0:	8b 4d 0c 	mov	ecx, dword ptr [ebp + 12]
  4044c3:	c7 06 01 00 00 00 	mov	dword ptr [esi], 1
  4044c9:	83 e1 07 	and	ecx, 7
  4044cc:	c1 e8 03 	shr	eax, 3
  4044cf:	d3 e8 	shr	eax, cl
  4044d1:	29 4d 0c 	sub	dword ptr [ebp + 12], ecx
  4044d4:	89 45 08 	mov	dword ptr [ebp + 8], eax
  4044d7:	e9 db 04 00 00 	jmp	1243 <.text+0x39B7>
  4044dc:	8b 4d 0c 	mov	ecx, dword ptr [ebp + 12]
  4044df:	83 f9 20 	cmp	ecx, 32
  4044e2:	73 22 	jae	34 <.text+0x3506>
  4044e4:	83 7d fc 00 	cmp	dword ptr [ebp - 4], 0
  4044e8:	0f 84 6a 05 00 00 	je	1386 <.text+0x3A58>
  4044ee:	0f b6 03 	movzx	eax, byte ptr [ebx]
  4044f1:	83 65 10 00 	and	dword ptr [ebp + 16], 0
  4044f5:	ff 4d fc 	dec	dword ptr [ebp - 4]
  4044f8:	d3 e0 	shl	eax, cl
  4044fa:	09 45 08 	or	dword ptr [ebp + 8], eax
  4044fd:	43 	inc	ebx
  4044fe:	83 c1 08 	add	ecx, 8
  404501:	89 4d 0c 	mov	dword ptr [ebp + 12], ecx
  404504:	eb d9 	jmp	-39 <.text+0x34DF>
  404506:	8b 4d 08 	mov	ecx, dword ptr [ebp + 8]
  404509:	8b 45 08 	mov	eax, dword ptr [ebp + 8]
  40450c:	f7 d1 	not	ecx
  40450e:	25 ff ff 00 00 	and	eax, 65535
  404513:	c1 e9 10 	shr	ecx, 16
  404516:	33 c8 	xor	ecx, eax
  404518:	0f 85 f4 04 00 00 	jne	1268 <.text+0x3A12>
  40451e:	89 46 04 	mov	dword ptr [esi + 4], eax
  404521:	33 c0 	xor	eax, eax
  404523:	39 46 04 	cmp	dword ptr [esi + 4], eax
  404526:	89 45 0c 	mov	dword ptr [ebp + 12], eax
  404529:	89 45 08 	mov	dword ptr [ebp + 8], eax
  40452c:	0f 84 ea 00 00 00 	je	234 <.text+0x361C>
  404532:	6a 02 	push	2
  404534:	58 	pop	eax
  404535:	e9 2f ff ff ff 	jmp	-209 <.text+0x3469>
  40453a:	83 7d fc 00 	cmp	dword ptr [ebp - 4], 0
  40453e:	0f 84 14 05 00 00 	je	1300 <.text+0x3A58>
  404544:	85 c9 	test	ecx, ecx
  404546:	0f 85 8b 00 00 00 	jne	139 <.text+0x35D7>
  40454c:	8b 4e 2c 	mov	ecx, dword ptr [esi + 44]
  40454f:	3b d1 	cmp	edx, ecx
  404551:	75 22 	jne	34 <.text+0x3575>
  404553:	8b 46 30 	mov	eax, dword ptr [esi + 48]
  404556:	8b 56 28 	mov	edx, dword ptr [esi + 40]
  404559:	3b d0 	cmp	edx, eax
  40455b:	74 18 	je	24 <.text+0x3575>
  40455d:	89 55 f8 	mov	dword ptr [ebp - 8], edx
  404560:	73 08 	jae	8 <.text+0x356A>
  404562:	2b c2 	sub	eax, edx
  404564:	48 	dec	eax
  404565:	89 45 f0 	mov	dword ptr [ebp - 16], eax
  404568:	eb 05 	jmp	5 <.text+0x356F>
  40456a:	2b ca 	sub	ecx, edx
  40456c:	89 4d f0 	mov	dword ptr [ebp - 16], ecx
  40456f:	83 7d f0 00 	cmp	dword ptr [ebp - 16], 0
  404573:	75 62 	jne	98 <.text+0x35D7>
  404575:	ff 75 10 	push	dword ptr [ebp + 16]
  404578:	8b 45 f8 	mov	eax, dword ptr [ebp - 8]
  40457b:	89 46 34 	mov	dword ptr [esi + 52], eax
  40457e:	57 	push	edi
  40457f:	56 	push	esi
  404580:	e8 51 f6 ff ff 	call	-2479 <.text+0x2BD6>
  404585:	8b 4e 30 	mov	ecx, dword ptr [esi + 48]
  404588:	89 45 10 	mov	dword ptr [ebp + 16], eax
  40458b:	8b 46 34 	mov	eax, dword ptr [esi + 52]
  40458e:	83 c4 0c 	add	esp, 12
  404591:	3b c1 	cmp	eax, ecx
  404593:	89 45 f8 	mov	dword ptr [ebp - 8], eax
  404596:	73 0b 	jae	11 <.text+0x35A3>
  404598:	8b c1 	mov	eax, ecx
  40459a:	2b 45 f8 	sub	eax, dword ptr [ebp - 8]
  40459d:	48 	dec	eax
  40459e:	89 45 f0 	mov	dword ptr [ebp - 16], eax
  4045a1:	eb 09 	jmp	9 <.text+0x35AC>
  4045a3:	8b 56 2c 	mov	edx, dword ptr [esi + 44]
  4045a6:	2b 55 f8 	sub	edx, dword ptr [ebp - 8]
  4045a9:	89 55 f0 	mov	dword ptr [ebp - 16], edx
  4045ac:	8b 56 2c 	mov	edx, dword ptr [esi + 44]
  4045af:	39 55 f8 	cmp	dword ptr [ebp - 8], edx
  4045b2:	75 19 	jne	25 <.text+0x35CD>
  4045b4:	8b 46 28 	mov	eax, dword ptr [esi + 40]
  4045b7:	3b c1 	cmp	eax, ecx
  4045b9:	74 12 	je	18 <.text+0x35CD>
  4045bb:	89 45 f8 	mov	dword ptr [ebp - 8], eax
  4045be:	73 08 	jae	8 <.text+0x35C8>
  4045c0:	2b c8 	sub	ecx, eax
  4045c2:	49 	dec	ecx
  4045c3:	89 4d f0 	mov	dword ptr [ebp - 16], ecx
  4045c6:	eb 05 	jmp	5 <.text+0x35CD>
  4045c8:	2b d0 	sub	edx, eax
  4045ca:	89 55 f0 	mov	dword ptr [ebp - 16], edx
  4045cd:	83 7d f0 00 	cmp	dword ptr [ebp - 16], 0
  4045d1:	0f 84 6d 04 00 00 	je	1133 <.text+0x3A44>
  4045d7:	8b 46 04 	mov	eax, dword ptr [esi + 4]
  4045da:	8b 4d fc 	mov	ecx, dword ptr [ebp - 4]
  4045dd:	83 65 10 00 	and	dword ptr [ebp + 16], 0
  4045e1:	3b c1 	cmp	eax, ecx
  4045e3:	89 45 f4 	mov	dword ptr [ebp - 12], eax
  4045e6:	76 03 	jbe	3 <.text+0x35EB>
  4045e8:	89 4d f4 	mov	dword ptr [ebp - 12], ecx
  4045eb:	8b 45 f0 	mov	eax, dword ptr [ebp - 16]
  4045ee:	39 45 f4 	cmp	dword ptr [ebp - 12], eax
  4045f1:	76 03 	jbe	3 <.text+0x35F6>
  4045f3:	89 45 f4 	mov	dword ptr [ebp - 12], eax
  4045f6:	ff 75 f4 	push	dword ptr [ebp - 12]
  4045f9:	53 	push	ebx
  4045fa:	ff 75 f8 	push	dword ptr [ebp - 8]
  4045fd:	e8 04 31 00 00 	call	12548 <.text+0x6706>
  404602:	8b 45 f4 	mov	eax, dword ptr [ebp - 12]
  404605:	83 c4 0c 	add	esp, 12
  404608:	29 45 fc 	sub	dword ptr [ebp - 4], eax
  40460b:	01 45 f8 	add	dword ptr [ebp - 8], eax
  40460e:	29 45 f0 	sub	dword ptr [ebp - 16], eax
  404611:	03 d8 	add	ebx, eax
  404613:	29 46 04 	sub	dword ptr [esi + 4], eax
  404616:	0f 85 9b 03 00 00 	jne	923 <.text+0x39B7>
  40461c:	8b 46 18 	mov	eax, dword ptr [esi + 24]
  40461f:	f7 d8 	neg	eax
  404621:	1b c0 	sbb	eax, eax
  404623:	83 e0 07 	and	eax, 7
  404626:	e9 3e fe ff ff 	jmp	-450 <.text+0x3469>
  40462b:	8b 4d 0c 	mov	ecx, dword ptr [ebp + 12]
  40462e:	83 f9 0e 	cmp	ecx, 14
  404631:	73 22 	jae	34 <.text+0x3655>
  404633:	83 7d fc 00 	cmp	dword ptr [ebp - 4], 0
  404637:	0f 84 1b 04 00 00 	je	1051 <.text+0x3A58>
  40463d:	0f b6 03 	movzx	eax, byte ptr [ebx]
  404640:	83 65 10 00 	and	dword ptr [ebp + 16], 0
  404644:	ff 4d fc 	dec	dword ptr [ebp - 4]
  404647:	d3 e0 	shl	eax, cl
  404649:	09 45 08 	or	dword ptr [ebp + 8], eax
  40464c:	43 	inc	ebx
  40464d:	83 c1 08 	add	ecx, 8
  404650:	89 4d 0c 	mov	dword ptr [ebp + 12], ecx
  404653:	eb d9 	jmp	-39 <.text+0x362E>
  404655:	8b 45 08 	mov	eax, dword ptr [ebp + 8]
  404658:	25 ff 3f 00 00 	and	eax, 16383
  40465d:	8b c8 	mov	ecx, eax
  40465f:	89 46 04 	mov	dword ptr [esi + 4], eax
  404662:	83 e1 1f 	and	ecx, 31
  404665:	83 f9 1d 	cmp	ecx, 29
  404668:	0f 87 11 04 00 00 	ja	1041 <.text+0x3A7F>
  40466e:	8b d0 	mov	edx, eax
  404670:	81 e2 e0 03 00 00 	and	edx, 992
  404676:	81 fa a0 03 00 00 	cmp	edx, 928
  40467c:	0f 87 fd 03 00 00 	ja	1021 <.text+0x3A7F>
  404682:	c1 e8 05 	shr	eax, 5
  404685:	83 e0 1f 	and	eax, 31
  404688:	6a 04 	push	4
  40468a:	8d 84 08 02 01 00 00 	lea	eax, [eax + ecx + 258]
  404691:	50 	push	eax
  404692:	ff 77 28 	push	dword ptr [edi + 40]
  404695:	ff 57 20 	call	dword ptr [edi + 32]
  404698:	83 c4 0c 	add	esp, 12
  40469b:	89 46 0c 	mov	dword ptr [esi + 12], eax
  40469e:	85 c0 	test	eax, eax
  4046a0:	0f 84 76 04 00 00 	je	1142 <.text+0x3B1C>
  4046a6:	c1 6d 08 0e 	shr	dword ptr [ebp + 8], 14
  4046aa:	83 6d 0c 0e 	sub	dword ptr [ebp + 12], 14
  4046ae:	83 66 08 00 	and	dword ptr [esi + 8], 0
  4046b2:	c7 06 04 00 00 00 	mov	dword ptr [esi], 4
  4046b8:	8b 46 04 	mov	eax, dword ptr [esi + 4]
  4046bb:	c1 e8 0a 	shr	eax, 10
  4046be:	83 c0 04 	add	eax, 4
  4046c1:	39 46 08 	cmp	dword ptr [esi + 8], eax
  4046c4:	73 5b 	jae	91 <.text+0x3721>
  4046c6:	8b 4d 0c 	mov	ecx, dword ptr [ebp + 12]
  4046c9:	83 f9 03 	cmp	ecx, 3
  4046cc:	73 22 	jae	34 <.text+0x36F0>
  4046ce:	83 7d fc 00 	cmp	dword ptr [ebp - 4], 0
  4046d2:	0f 84 80 03 00 00 	je	896 <.text+0x3A58>
  4046d8:	0f b6 03 	movzx	eax, byte ptr [ebx]
  4046db:	83 65 10 00 	and	dword ptr [ebp + 16], 0
  4046df:	ff 4d fc 	dec	dword ptr [ebp - 4]
  4046e2:	d3 e0 	shl	eax, cl
  4046e4:	09 45 08 	or	dword ptr [ebp + 8], eax
  4046e7:	43 	inc	ebx
  4046e8:	83 c1 08 	add	ecx, 8
  4046eb:	89 4d 0c 	mov	dword ptr [ebp + 12], ecx
  4046ee:	eb d9 	jmp	-39 <.text+0x36C9>
  4046f0:	8b 4e 08 	mov	ecx, dword ptr [esi + 8]
  4046f3:	8b 45 08 	mov	eax, dword ptr [ebp + 8]
  4046f6:	8b 56 0c 	mov	edx, dword ptr [esi + 12]
  4046f9:	83 e0 07 	and	eax, 7
  4046fc:	8b 0c 8d f0 cd 40 00 	mov	ecx, dword ptr [4*ecx + 4247024]
  404703:	83 6d 0c 03 	sub	dword ptr [ebp + 12], 3
  404707:	c1 6d 08 03 	shr	dword ptr [ebp + 8], 3
  40470b:	89 04 8a 	mov	dword ptr [edx + 4*ecx], eax
  40470e:	8b 4e 04 	mov	ecx, dword ptr [esi + 4]
  404711:	ff 46 08 	inc	dword ptr [esi + 8]
  404714:	8b 46 08 	mov	eax, dword ptr [esi + 8]
  404717:	c1 e9 0a 	shr	ecx, 10
  40471a:	83 c1 04 	add	ecx, 4
  40471d:	3b c1 	cmp	eax, ecx
  40471f:	72 a5 	jb	-91 <.text+0x36C6>
  404721:	83 7e 08 13 	cmp	dword ptr [esi + 8], 19
  404725:	73 16 	jae	22 <.text+0x373D>
  404727:	8b 46 08 	mov	eax, dword ptr [esi + 8]
  40472a:	8b 4e 0c 	mov	ecx, dword ptr [esi + 12]
  40472d:	8b 04 85 f0 cd 40 00 	mov	eax, dword ptr [4*eax + 4247024]
  404734:	83 24 81 00 	and	dword ptr [ecx + 4*eax], 0
  404738:	ff 46 08 	inc	dword ptr [esi + 8]
  40473b:	eb e4 	jmp	-28 <.text+0x3721>
  40473d:	57 	push	edi
  40473e:	8d 4e 14 	lea	ecx, [esi + 20]
  404741:	ff 76 24 	push	dword ptr [esi + 36]
  404744:	8d 46 10 	lea	eax, [esi + 16]
  404747:	51 	push	ecx
  404748:	50 	push	eax
  404749:	ff 76 0c 	push	dword ptr [esi + 12]
  40474c:	c7 00 07 00 00 00 	mov	dword ptr [eax], 7
  404752:	e8 49 08 00 00 	call	2121 <.text+0x3FA0>
  404757:	83 c4 14 	add	esp, 20
  40475a:	89 45 f4 	mov	dword ptr [ebp - 12], eax
  40475d:	85 c0 	test	eax, eax
  40475f:	0f 85 29 03 00 00 	jne	809 <.text+0x3A8E>
  404765:	21 46 08 	and	dword ptr [esi + 8], eax
  404768:	c7 06 05 00 00 00 	mov	dword ptr [esi], 5
  40476e:	8b 46 04 	mov	eax, dword ptr [esi + 4]
  404771:	8b 4e 08 	mov	ecx, dword ptr [esi + 8]
  404774:	8b d0 	mov	edx, eax
  404776:	83 e0 1f 	and	eax, 31
  404779:	c1 ea 05 	shr	edx, 5
  40477c:	83 e2 1f 	and	edx, 31
  40477f:	8d 84 02 02 01 00 00 	lea	eax, [edx + eax + 258]
  404786:	3b c8 	cmp	ecx, eax
  404788:	0f 83 24 01 00 00 	jae	292 <.text+0x38B2>
  40478e:	8b 46 10 	mov	eax, dword ptr [esi + 16]
  404791:	39 45 0c 	cmp	dword ptr [ebp + 12], eax
  404794:	73 23 	jae	35 <.text+0x37B9>
  404796:	83 7d fc 00 	cmp	dword ptr [ebp - 4], 0
  40479a:	0f 84 b8 02 00 00 	je	696 <.text+0x3A58>
  4047a0:	0f b6 13 	movzx	edx, byte ptr [ebx]
  4047a3:	8b 4d 0c 	mov	ecx, dword ptr [ebp + 12]
  4047a6:	83 65 10 00 	and	dword ptr [ebp + 16], 0
  4047aa:	ff 4d fc 	dec	dword ptr [ebp - 4]
  4047ad:	d3 e2 	shl	edx, cl
  4047af:	09 55 08 	or	dword ptr [ebp + 8], edx
  4047b2:	43 	inc	ebx
  4047b3:	83 45 0c 08 	add	dword ptr [ebp + 12], 8
  4047b7:	eb d8 	jmp	-40 <.text+0x3791>
  4047b9:	8b 04 85 a8 bc 40 00 	mov	eax, dword ptr [4*eax + 4242600]
  4047c0:	8b 4e 14 	mov	ecx, dword ptr [esi + 20]
  4047c3:	23 45 08 	and	eax, dword ptr [ebp + 8]
  4047c6:	8b 54 c1 04 	mov	edx, dword ptr [ecx + 8*eax + 4]
  4047ca:	8d 04 c1 	lea	eax, [ecx + 8*eax]
  4047cd:	83 fa 10 	cmp	edx, 16
  4047d0:	89 55 ec 	mov	dword ptr [ebp - 20], edx
  4047d3:	0f b6 48 01 	movzx	ecx, byte ptr [eax + 1]
  4047d7:	89 4d f4 	mov	dword ptr [ebp - 12], ecx
  4047da:	73 19 	jae	25 <.text+0x37F5>
  4047dc:	d3 6d 08 	shr	dword ptr [ebp + 8], cl
  4047df:	8b c1 	mov	eax, ecx
  4047e1:	8b 4e 0c 	mov	ecx, dword ptr [esi + 12]
  4047e4:	29 45 0c 	sub	dword ptr [ebp + 12], eax
  4047e7:	8b 46 08 	mov	eax, dword ptr [esi + 8]
  4047ea:	89 14 81 	mov	dword ptr [ecx + 4*eax], edx
  4047ed:	ff 46 08 	inc	dword ptr [esi + 8]
  4047f0:	e9 79 ff ff ff 	jmp	-135 <.text+0x376E>
  4047f5:	83 fa 12 	cmp	edx, 18
  4047f8:	75 05 	jne	5 <.text+0x37FF>
  4047fa:	6a 07 	push	7
  4047fc:	58 	pop	eax
  4047fd:	eb 03 	jmp	3 <.text+0x3802>
  4047ff:	8d 42 f2 	lea	eax, [edx - 14]
  404802:	33 c9 	xor	ecx, ecx
  404804:	83 fa 12 	cmp	edx, 18
  404807:	0f 95 c1 	setne	cl
  40480a:	49 	dec	ecx
  40480b:	83 e1 08 	and	ecx, 8
  40480e:	83 c1 03 	add	ecx, 3
  404811:	89 4d f0 	mov	dword ptr [ebp - 16], ecx
  404814:	8b 4d f4 	mov	ecx, dword ptr [ebp - 12]
  404817:	8d 14 08 	lea	edx, [eax + ecx]
  40481a:	39 55 0c 	cmp	dword ptr [ebp + 12], edx
  40481d:	73 23 	jae	35 <.text+0x3842>
  40481f:	83 7d fc 00 	cmp	dword ptr [ebp - 4], 0
  404823:	0f 84 2f 02 00 00 	je	559 <.text+0x3A58>
  404829:	0f b6 13 	movzx	edx, byte ptr [ebx]
  40482c:	8b 4d 0c 	mov	ecx, dword ptr [ebp + 12]
  40482f:	83 65 10 00 	and	dword ptr [ebp + 16], 0
  404833:	ff 4d fc 	dec	dword ptr [ebp - 4]
  404836:	d3 e2 	shl	edx, cl
  404838:	09 55 08 	or	dword ptr [ebp + 8], edx
  40483b:	43 	inc	ebx
  40483c:	83 45 0c 08 	add	dword ptr [ebp + 12], 8
  404840:	eb d2 	jmp	-46 <.text+0x3814>
  404842:	d3 6d 08 	shr	dword ptr [ebp + 8], cl
  404845:	8b 0c 85 a8 bc 40 00 	mov	ecx, dword ptr [4*eax + 4242600]
  40484c:	23 4d 08 	and	ecx, dword ptr [ebp + 8]
  40484f:	01 4d f0 	add	dword ptr [ebp - 16], ecx
  404852:	8b c8 	mov	ecx, eax
  404854:	d3 6d 08 	shr	dword ptr [ebp + 8], cl
  404857:	8b 4d f4 	mov	ecx, dword ptr [ebp - 12]
  40485a:	03 c1 	add	eax, ecx
  40485c:	8b 4e 08 	mov	ecx, dword ptr [esi + 8]
  40485f:	29 45 0c 	sub	dword ptr [ebp + 12], eax
  404862:	8b 46 04 	mov	eax, dword ptr [esi + 4]
  404865:	8b d0 	mov	edx, eax
  404867:	83 e0 1f 	and	eax, 31
  40486a:	c1 ea 05 	shr	edx, 5
  40486d:	83 e2 1f 	and	edx, 31
  404870:	8d 84 02 02 01 00 00 	lea	eax, [edx + eax + 258]
  404877:	8b 55 f0 	mov	edx, dword ptr [ebp - 16]
  40487a:	03 d1 	add	edx, ecx
  40487c:	3b d0 	cmp	edx, eax
  40487e:	0f 87 10 02 00 00 	ja	528 <.text+0x3A94>
  404884:	83 7d ec 10 	cmp	dword ptr [ebp - 20], 16
  404888:	75 12 	jne	18 <.text+0x389C>
  40488a:	83 f9 01 	cmp	ecx, 1
  40488d:	0f 82 01 02 00 00 	jb	513 <.text+0x3A94>
  404893:	8b 46 0c 	mov	eax, dword ptr [esi + 12]
  404896:	8b 44 88 fc 	mov	eax, dword ptr [eax + 4*ecx - 4]
  40489a:	eb 02 	jmp	2 <.text+0x389E>
  40489c:	33 c0 	xor	eax, eax
  40489e:	8b 56 0c 	mov	edx, dword ptr [esi + 12]
  4048a1:	89 04 8a 	mov	dword ptr [edx + 4*ecx], eax
  4048a4:	41 	inc	ecx
  4048a5:	ff 4d f0 	dec	dword ptr [ebp - 16]
  4048a8:	75 f4 	jne	-12 <.text+0x389E>
  4048aa:	89 4e 08 	mov	dword ptr [esi + 8], ecx
  4048ad:	e9 bc fe ff ff 	jmp	-324 <.text+0x376E>
  4048b2:	57 	push	edi
  4048b3:	8d 4d d8 	lea	ecx, [ebp - 40]
  4048b6:	ff 76 24 	push	dword ptr [esi + 36]
  4048b9:	8b 46 04 	mov	eax, dword ptr [esi + 4]
  4048bc:	83 66 14 00 	and	dword ptr [esi + 20], 0
  4048c0:	c7 45 ec 09 00 00 00 	mov	dword ptr [ebp - 20], 9
  4048c7:	51 	push	ecx
  4048c8:	8d 4d d4 	lea	ecx, [ebp - 44]
  4048cb:	51 	push	ecx
  4048cc:	8d 4d f0 	lea	ecx, [ebp - 16]
  4048cf:	51 	push	ecx
  4048d0:	8d 4d ec 	lea	ecx, [ebp - 20]
  4048d3:	51 	push	ecx
  4048d4:	8b c8 	mov	ecx, eax
  4048d6:	ff 76 0c 	push	dword ptr [esi + 12]
  4048d9:	83 e0 1f 	and	eax, 31
  4048dc:	c1 e9 05 	shr	ecx, 5
  4048df:	83 e1 1f 	and	ecx, 31
  4048e2:	05 01 01 00 00 	add	eax, 257
  4048e7:	41 	inc	ecx
  4048e8:	c7 45 f0 06 00 00 00 	mov	dword ptr [ebp - 16], 6
  4048ef:	51 	push	ecx
  4048f0:	50 	push	eax
  4048f1:	e8 29 07 00 00 	call	1833 <.text+0x401F>
  4048f6:	83 c4 24 	add	esp, 36
  4048f9:	89 45 f4 	mov	dword ptr [ebp - 12], eax
  4048fc:	85 c0 	test	eax, eax
  4048fe:	0f 85 d8 01 00 00 	jne	472 <.text+0x3ADC>
  404904:	57 	push	edi
  404905:	ff 75 d8 	push	dword ptr [ebp - 40]
  404908:	ff 75 d4 	push	dword ptr [ebp - 44]
  40490b:	ff 75 f0 	push	dword ptr [ebp - 16]
  40490e:	ff 75 ec 	push	dword ptr [ebp - 20]
  404911:	e8 b2 f3 ff ff 	call	-3150 <.text+0x2CC8>
  404916:	83 c4 14 	add	esp, 20
  404919:	85 c0 	test	eax, eax
  40491b:	0f 84 fb 01 00 00 	je	507 <.text+0x3B1C>
  404921:	ff 76 0c 	push	dword ptr [esi + 12]
  404924:	89 46 04 	mov	dword ptr [esi + 4], eax
  404927:	ff 77 28 	push	dword ptr [edi + 40]
  40492a:	ff 57 24 	call	dword ptr [edi + 36]
  40492d:	59 	pop	ecx
  40492e:	c7 06 06 00 00 00 	mov	dword ptr [esi], 6
  404934:	59 	pop	ecx
  404935:	8b 45 08 	mov	eax, dword ptr [ebp + 8]
  404938:	ff 75 10 	push	dword ptr [ebp + 16]
  40493b:	89 46 20 	mov	dword ptr [esi + 32], eax
  40493e:	8b 45 0c 	mov	eax, dword ptr [ebp + 12]
  404941:	89 46 1c 	mov	dword ptr [esi + 28], eax
  404944:	8b 45 fc 	mov	eax, dword ptr [ebp - 4]
  404947:	89 47 04 	mov	dword ptr [edi + 4], eax
  40494a:	8b c3 	mov	eax, ebx
  40494c:	2b 07 	sub	eax, dword ptr [edi]
  40494e:	57 	push	edi
  40494f:	89 1f 	mov	dword ptr [edi], ebx
  404951:	56 	push	esi
  404952:	01 47 08 	add	dword ptr [edi + 8], eax
  404955:	8b 45 f8 	mov	eax, dword ptr [ebp - 8]
  404958:	89 46 34 	mov	dword ptr [esi + 52], eax
  40495b:	e8 9c f3 ff ff 	call	-3172 <.text+0x2CFC>
  404960:	83 c4 0c 	add	esp, 12
  404963:	83 f8 01 	cmp	eax, 1
  404966:	0f 85 1d 02 00 00 	jne	541 <.text+0x3B89>
  40496c:	83 65 10 00 	and	dword ptr [ebp + 16], 0
  404970:	57 	push	edi
  404971:	ff 76 04 	push	dword ptr [esi + 4]
  404974:	e8 36 f9 ff ff 	call	-1738 <.text+0x32AF>
  404979:	8b 47 04 	mov	eax, dword ptr [edi + 4]
  40497c:	8b 1f 	mov	ebx, dword ptr [edi]
  40497e:	89 45 fc 	mov	dword ptr [ebp - 4], eax
  404981:	8b 46 20 	mov	eax, dword ptr [esi + 32]
  404984:	59 	pop	ecx
  404985:	89 45 08 	mov	dword ptr [ebp + 8], eax
  404988:	8b 46 1c 	mov	eax, dword ptr [esi + 28]
  40498b:	59 	pop	ecx
  40498c:	8b 4e 34 	mov	ecx, dword ptr [esi + 52]
  40498f:	89 45 0c 	mov	dword ptr [ebp + 12], eax
  404992:	8b 46 30 	mov	eax, dword ptr [esi + 48]
  404995:	89 4d f8 	mov	dword ptr [ebp - 8], ecx
  404998:	3b c8 	cmp	ecx, eax
  40499a:	73 05 	jae	5 <.text+0x39A1>
  40499c:	2b c1 	sub	eax, ecx
  40499e:	48 	dec	eax
  40499f:	eb 06 	jmp	6 <.text+0x39A7>
  4049a1:	8b 46 2c 	mov	eax, dword ptr [esi + 44]
  4049a4:	2b 45 f8 	sub	eax, dword ptr [ebp - 8]
  4049a7:	83 7e 18 00 	cmp	dword ptr [esi + 24], 0
  4049ab:	89 45 f0 	mov	dword ptr [ebp - 16], eax
  4049ae:	0f 85 90 01 00 00 	jne	400 <.text+0x3B44>
  4049b4:	83 26 00 	and	dword ptr [esi], 0
  4049b7:	8b 06 	mov	eax, dword ptr [esi]
  4049b9:	83 f8 09 	cmp	eax, 9
  4049bc:	0f 86 40 fa ff ff 	jbe	-1472 <.text+0x3402>
  4049c2:	8b 45 08 	mov	eax, dword ptr [ebp + 8]
  4049c5:	6a fe 	push	-2
  4049c7:	89 46 20 	mov	dword ptr [esi + 32], eax
  4049ca:	8b 45 0c 	mov	eax, dword ptr [ebp + 12]
  4049cd:	89 46 1c 	mov	dword ptr [esi + 28], eax
  4049d0:	8b 45 fc 	mov	eax, dword ptr [ebp - 4]
  4049d3:	89 47 04 	mov	dword ptr [edi + 4], eax
  4049d6:	8b c3 	mov	eax, ebx
  4049d8:	2b 07 	sub	eax, dword ptr [edi]
  4049da:	89 1f 	mov	dword ptr [edi], ebx
  4049dc:	01 47 08 	add	dword ptr [edi + 8], eax
  4049df:	8b 45 f8 	mov	eax, dword ptr [ebp - 8]
  4049e2:	89 46 34 	mov	dword ptr [esi + 52], eax
  4049e5:	57 	push	edi
  4049e6:	56 	push	esi
  4049e7:	e8 ea f1 ff ff 	call	-3606 <.text+0x2BD6>
  4049ec:	83 c4 0c 	add	esp, 12
  4049ef:	5f 	pop	edi
  4049f0:	5e 	pop	esi
  4049f1:	5b 	pop	ebx
  4049f2:	c9 	leave
  4049f3:	c3 	ret
  4049f4:	8b 45 08 	mov	eax, dword ptr [ebp + 8]
  4049f7:	c7 06 09 00 00 00 	mov	dword ptr [esi], 9
  4049fd:	c1 e8 03 	shr	eax, 3
  404a00:	c7 47 18 ac f6 40 00 	mov	dword ptr [edi + 24], 4257452
  404a07:	89 46 20 	mov	dword ptr [esi + 32], eax
  404a0a:	8b 45 0c 	mov	eax, dword ptr [ebp + 12]
  404a0d:	83 c0 fd 	add	eax, -3
  404a10:	eb 16 	jmp	22 <.text+0x3A28>
  404a12:	c7 06 09 00 00 00 	mov	dword ptr [esi], 9
  404a18:	c7 47 18 8c f6 40 00 	mov	dword ptr [edi + 24], 4257420
  404a1f:	8b 45 08 	mov	eax, dword ptr [ebp + 8]
  404a22:	89 46 20 	mov	dword ptr [esi + 32], eax
  404a25:	8b 45 0c 	mov	eax, dword ptr [ebp + 12]
  404a28:	89 46 1c 	mov	dword ptr [esi + 28], eax
  404a2b:	8b 45 fc 	mov	eax, dword ptr [ebp - 4]
  404a2e:	89 47 04 	mov	dword ptr [edi + 4], eax
  404a31:	8b c3 	mov	eax, ebx
  404a33:	2b 07 	sub	eax, dword ptr [edi]
  404a35:	89 1f 	mov	dword ptr [edi], ebx
  404a37:	6a fd 	push	-3
  404a39:	01 47 08 	add	dword ptr [edi + 8], eax
  404a3c:	8b 45 f8 	mov	eax, dword ptr [ebp - 8]
  404a3f:	89 46 34 	mov	dword ptr [esi + 52], eax
  404a42:	eb a1 	jmp	-95 <.text+0x39E5>
  404a44:	8b 45 08 	mov	eax, dword ptr [ebp + 8]
  404a47:	89 46 20 	mov	dword ptr [esi + 32], eax
  404a4a:	8b 45 0c 	mov	eax, dword ptr [ebp + 12]
  404a4d:	89 46 1c 	mov	dword ptr [esi + 28], eax
  404a50:	8b 45 fc 	mov	eax, dword ptr [ebp - 4]
  404a53:	89 47 04 	mov	dword ptr [edi + 4], eax
  404a56:	eb 10 	jmp	16 <.text+0x3A68>
  404a58:	8b 45 08 	mov	eax, dword ptr [ebp + 8]
  404a5b:	89 46 20 	mov	dword ptr [esi + 32], eax
  404a5e:	8b 45 0c 	mov	eax, dword ptr [ebp + 12]
  404a61:	89 46 1c 	mov	dword ptr [esi + 28], eax
  404a64:	83 67 04 00 	and	dword ptr [edi + 4], 0
  404a68:	8b c3 	mov	eax, ebx
  404a6a:	ff 75 10 	push	dword ptr [ebp + 16]
  404a6d:	2b 07 	sub	eax, dword ptr [edi]
  404a6f:	89 1f 	mov	dword ptr [edi], ebx
  404a71:	01 47 08 	add	dword ptr [edi + 8], eax
  404a74:	8b 45 f8 	mov	eax, dword ptr [ebp - 8]
  404a77:	89 46 34 	mov	dword ptr [esi + 52], eax
  404a7a:	e9 66 ff ff ff 	jmp	-154 <.text+0x39E5>
  404a7f:	c7 06 09 00 00 00 	mov	dword ptr [esi], 9
  404a85:	c7 47 18 68 f6 40 00 	mov	dword ptr [edi + 24], 4257384
  404a8c:	eb 91 	jmp	-111 <.text+0x3A1F>
  404a8e:	83 7d f4 fd 	cmp	dword ptr [ebp - 12], -3
  404a92:	eb 4c 	jmp	76 <.text+0x3AE0>
  404a94:	ff 76 0c 	push	dword ptr [esi + 12]
  404a97:	ff 77 28 	push	dword ptr [edi + 40]
  404a9a:	ff 57 24 	call	dword ptr [edi + 36]
  404a9d:	8b 45 08 	mov	eax, dword ptr [ebp + 8]
  404aa0:	c7 06 09 00 00 00 	mov	dword ptr [esi], 9
  404aa6:	c7 47 18 4c f6 40 00 	mov	dword ptr [edi + 24], 4257356
  404aad:	89 46 20 	mov	dword ptr [esi + 32], eax
  404ab0:	8b 45 0c 	mov	eax, dword ptr [ebp + 12]
  404ab3:	6a fd 	push	-3
  404ab5:	89 46 1c 	mov	dword ptr [esi + 28], eax
  404ab8:	8b 45 fc 	mov	eax, dword ptr [ebp - 4]
  404abb:	89 47 04 	mov	dword ptr [edi + 4], eax
  404abe:	8b c3 	mov	eax, ebx
  404ac0:	2b 07 	sub	eax, dword ptr [edi]
  404ac2:	57 	push	edi
  404ac3:	89 1f 	mov	dword ptr [edi], ebx
  404ac5:	56 	push	esi
  404ac6:	01 47 08 	add	dword ptr [edi + 8], eax
  404ac9:	8b 45 f8 	mov	eax, dword ptr [ebp - 8]
  404acc:	89 46 34 	mov	dword ptr [esi + 52], eax
  404acf:	e8 02 f1 ff ff 	call	-3838 <.text+0x2BD6>
  404ad4:	83 c4 14 	add	esp, 20
  404ad7:	e9 13 ff ff ff 	jmp	-237 <.text+0x39EF>
  404adc:	83 7d f4 fd 	cmp	dword ptr [ebp - 12], -3
  404ae0:	75 11 	jne	17 <.text+0x3AF3>
  404ae2:	ff 76 0c 	push	dword ptr [esi + 12]
  404ae5:	ff 77 28 	push	dword ptr [edi + 40]
  404ae8:	ff 57 24 	call	dword ptr [edi + 36]
  404aeb:	59 	pop	ecx
  404aec:	c7 06 09 00 00 00 	mov	dword ptr [esi], 9
  404af2:	59 	pop	ecx
  404af3:	8b 45 08 	mov	eax, dword ptr [ebp + 8]
  404af6:	ff 75 f4 	push	dword ptr [ebp - 12]
  404af9:	89 46 20 	mov	dword ptr [esi + 32], eax
  404afc:	8b 45 0c 	mov	eax, dword ptr [ebp + 12]
  404aff:	89 46 1c 	mov	dword ptr [esi + 28], eax
  404b02:	8b 45 fc 	mov	eax, dword ptr [ebp - 4]
  404b05:	89 47 04 	mov	dword ptr [edi + 4], eax
  404b08:	8b c3 	mov	eax, ebx
  404b0a:	2b 07 	sub	eax, dword ptr [edi]
  404b0c:	89 1f 	mov	dword ptr [edi], ebx
  404b0e:	01 47 08 	add	dword ptr [edi + 8], eax
  404b11:	8b 45 f8 	mov	eax, dword ptr [ebp - 8]
  404b14:	89 46 34 	mov	dword ptr [esi + 52], eax
  404b17:	e9 c9 fe ff ff 	jmp	-311 <.text+0x39E5>
  404b1c:	8b 45 08 	mov	eax, dword ptr [ebp + 8]
  404b1f:	6a fc 	push	-4
  404b21:	89 46 20 	mov	dword ptr [esi + 32], eax
  404b24:	8b 45 0c 	mov	eax, dword ptr [ebp + 12]
  404b27:	89 46 1c 	mov	dword ptr [esi + 28], eax
  404b2a:	8b 45 fc 	mov	eax, dword ptr [ebp - 4]
  404b2d:	89 47 04 	mov	dword ptr [edi + 4], eax
  404b30:	8b c3 	mov	eax, ebx
  404b32:	2b 07 	sub	eax, dword ptr [edi]
  404b34:	89 1f 	mov	dword ptr [edi], ebx
  404b36:	01 47 08 	add	dword ptr [edi + 8], eax
  404b39:	8b 45 f8 	mov	eax, dword ptr [ebp - 8]
  404b3c:	89 46 34 	mov	dword ptr [esi + 52], eax
  404b3f:	e9 a1 fe ff ff 	jmp	-351 <.text+0x39E5>
  404b44:	c7 06 07 00 00 00 	mov	dword ptr [esi], 7
  404b4a:	ff 75 10 	push	dword ptr [ebp + 16]
  404b4d:	8b 45 f8 	mov	eax, dword ptr [ebp - 8]
  404b50:	89 46 34 	mov	dword ptr [esi + 52], eax
  404b53:	57 	push	edi
  404b54:	56 	push	esi
  404b55:	e8 7c f0 ff ff 	call	-3972 <.text+0x2BD6>
  404b5a:	8b 4e 34 	mov	ecx, dword ptr [esi + 52]
  404b5d:	83 c4 0c 	add	esp, 12
  404b60:	39 4e 30 	cmp	dword ptr [esi + 48], ecx
  404b63:	89 4d f8 	mov	dword ptr [ebp - 8], ecx
  404b66:	74 27 	je	39 <.text+0x3B8F>
  404b68:	8b 4d 08 	mov	ecx, dword ptr [ebp + 8]
  404b6b:	89 4e 20 	mov	dword ptr [esi + 32], ecx
  404b6e:	8b 4d 0c 	mov	ecx, dword ptr [ebp + 12]
  404b71:	89 4e 1c 	mov	dword ptr [esi + 28], ecx
  404b74:	8b 4d fc 	mov	ecx, dword ptr [ebp - 4]
  404b77:	89 4f 04 	mov	dword ptr [edi + 4], ecx
  404b7a:	8b cb 	mov	ecx, ebx
  404b7c:	2b 0f 	sub	ecx, dword ptr [edi]
  404b7e:	89 1f 	mov	dword ptr [edi], ebx
  404b80:	01 4f 08 	add	dword ptr [edi + 8], ecx
  404b83:	8b 4d f8 	mov	ecx, dword ptr [ebp - 8]
  404b86:	89 4e 34 	mov	dword ptr [esi + 52], ecx
  404b89:	50 	push	eax
  404b8a:	e9 56 fe ff ff 	jmp	-426 <.text+0x39E5>
  404b8f:	c7 06 08 00 00 00 	mov	dword ptr [esi], 8
  404b95:	8b 45 08 	mov	eax, dword ptr [ebp + 8]
  404b98:	6a 01 	push	1
  404b9a:	89 46 20 	mov	dword ptr [esi + 32], eax
  404b9d:	8b 45 0c 	mov	eax, dword ptr [ebp + 12]
  404ba0:	89 46 1c 	mov	dword ptr [esi + 28], eax
  404ba3:	8b 45 fc 	mov	eax, dword ptr [ebp - 4]
  404ba6:	89 47 04 	mov	dword ptr [edi + 4], eax
  404ba9:	8b c3 	mov	eax, ebx
  404bab:	2b 07 	sub	eax, dword ptr [edi]
  404bad:	89 1f 	mov	dword ptr [edi], ebx
  404baf:	01 47 08 	add	dword ptr [edi + 8], eax
  404bb2:	8b 45 f8 	mov	eax, dword ptr [ebp - 8]
  404bb5:	89 46 34 	mov	dword ptr [esi + 52], eax
  404bb8:	e9 28 fe ff ff 	jmp	-472 <.text+0x39E5>
  404bbd:	0f 44 40 00 	cmove	eax, dword ptr [eax]
  404bc1:	dc 44 40 00 	fadd	qword ptr [eax + 2*eax]
  404bc5:	3a 45 40 	cmp	al, byte ptr [ebp + 64]
  404bc8:	00 2b 	add	byte ptr [ebx], ch
  404bca:	46 	inc	esi
  404bcb:	40 	inc	eax
  404bcc:	00 b8 46 40 00 6e 	add	byte ptr [eax + 1845510214], bh
  404bd2:	47 	inc	edi
  404bd3:	40 	inc	eax
  404bd4:	00 35 49 40 00 4a 	add	byte ptr [1241530441], dh
  404bda:	4b 	dec	ebx
  404bdb:	40 	inc	eax
  404bdc:	00 95 4b 40 00 1f 	add	byte ptr [ebp + 520110155], dl
  404be2:	4a 	dec	edx
  404be3:	40 	inc	eax
  404be4:	00 56 8b 	add	byte ptr [esi - 117], dl
  404be7:	74 24 	je	36 <.text+0x3C0D>
  404be9:	0c 57 	or	al, 87
  404beb:	8b 7c 24 0c 	mov	edi, dword ptr [esp + 12]
  404bef:	6a 00 	push	0
  404bf1:	56 	push	esi
  404bf2:	57 	push	edi
  404bf3:	e8 c8 f6 ff ff 	call	-2360 <.text+0x32C0>
  404bf8:	ff 77 28 	push	dword ptr [edi + 40]
  404bfb:	ff 76 28 	push	dword ptr [esi + 40]
  404bfe:	ff 56 24 	call	dword ptr [esi + 36]
  404c01:	ff 77 24 	push	dword ptr [edi + 36]
  404c04:	ff 76 28 	push	dword ptr [esi + 40]
  404c07:	ff 56 24 	call	dword ptr [esi + 36]
  404c0a:	57 	push	edi
  404c0b:	ff 76 28 	push	dword ptr [esi + 40]
  404c0e:	ff 56 24 	call	dword ptr [esi + 36]
  404c11:	83 c4 24 	add	esp, 36
  404c14:	33 c0 	xor	eax, eax
  404c16:	5f 	pop	edi
  404c17:	5e 	pop	esi
  404c18:	c3 	ret
  404c19:	55 	push	ebp
  404c1a:	8b ec 	mov	ebp, esp
  404c1c:	81 ec f0 00 00 00 	sub	esp, 240
  404c22:	8b 4d 08 	mov	ecx, dword ptr [ebp + 8]
  404c25:	53 	push	ebx
  404c26:	56 	push	esi
  404c27:	57 	push	edi
  404c28:	8b 7d 0c 	mov	edi, dword ptr [ebp + 12]
  404c2b:	33 d2 	xor	edx, edx
  404c2d:	89 55 8c 	mov	dword ptr [ebp - 116], edx
  404c30:	89 55 90 	mov	dword ptr [ebp - 112], edx
  404c33:	89 55 94 	mov	dword ptr [ebp - 108], edx
  404c36:	89 55 98 	mov	dword ptr [ebp - 104], edx
  404c39:	89 55 9c 	mov	dword ptr [ebp - 100], edx
  404c3c:	89 55 a0 	mov	dword ptr [ebp - 96], edx
  404c3f:	89 55 a4 	mov	dword ptr [ebp - 92], edx
  404c42:	89 55 a8 	mov	dword ptr [ebp - 88], edx
  404c45:	89 55 ac 	mov	dword ptr [ebp - 84], edx
  404c48:	89 55 b0 	mov	dword ptr [ebp - 80], edx
  404c4b:	89 55 b4 	mov	dword ptr [ebp - 76], edx
  404c4e:	89 55 b8 	mov	dword ptr [ebp - 72], edx
  404c51:	89 55 bc 	mov	dword ptr [ebp - 68], edx
  404c54:	89 55 c0 	mov	dword ptr [ebp - 64], edx
  404c57:	89 55 c4 	mov	dword ptr [ebp - 60], edx
  404c5a:	89 55 c8 	mov	dword ptr [ebp - 56], edx
  404c5d:	8b f7 	mov	esi, edi
  404c5f:	8b 01 	mov	eax, dword ptr [ecx]
  404c61:	83 c1 04 	add	ecx, 4
  404c64:	ff 44 85 8c 	inc	dword ptr [ebp + 4*eax - 116]
  404c68:	8d 44 85 8c 	lea	eax, [ebp + 4*eax - 116]
  404c6c:	4e 	dec	esi
  404c6d:	75 f0 	jne	-16 <.text+0x3C5F>
  404c6f:	39 7d 8c 	cmp	dword ptr [ebp - 116], edi
  404c72:	75 11 	jne	17 <.text+0x3C85>
  404c74:	8b 45 1c 	mov	eax, dword ptr [ebp + 28]
  404c77:	89 10 	mov	dword ptr [eax], edx
  404c79:	8b 45 20 	mov	eax, dword ptr [ebp + 32]
  404c7c:	89 10 	mov	dword ptr [eax], edx
  404c7e:	33 c0 	xor	eax, eax
  404c80:	5f 	pop	edi
  404c81:	5e 	pop	esi
  404c82:	5b 	pop	ebx
  404c83:	c9 	leave
  404c84:	c3 	ret
  404c85:	8b 7d 20 	mov	edi, dword ptr [ebp + 32]
  404c88:	6a 01 	push	1
  404c8a:	5b 	pop	ebx
  404c8b:	8d 45 90 	lea	eax, [ebp - 112]
  404c8e:	8b 37 	mov	esi, dword ptr [edi]
  404c90:	8b cb 	mov	ecx, ebx
  404c92:	89 75 20 	mov	dword ptr [ebp + 32], esi
  404c95:	39 10 	cmp	dword ptr [eax], edx
  404c97:	75 09 	jne	9 <.text+0x3CA2>
  404c99:	41 	inc	ecx
  404c9a:	83 c0 04 	add	eax, 4
  404c9d:	83 f9 0f 	cmp	ecx, 15
  404ca0:	76 f3 	jbe	-13 <.text+0x3C95>
  404ca2:	3b f1 	cmp	esi, ecx
  404ca4:	89 4d fc 	mov	dword ptr [ebp - 4], ecx
  404ca7:	73 03 	jae	3 <.text+0x3CAC>
  404ca9:	89 4d 20 	mov	dword ptr [ebp + 32], ecx
  404cac:	6a 0f 	push	15
  404cae:	8d 75 c8 	lea	esi, [ebp - 56]
  404cb1:	58 	pop	eax
  404cb2:	39 16 	cmp	dword ptr [esi], edx
  404cb4:	75 08 	jne	8 <.text+0x3CBE>
  404cb6:	48 	dec	eax
  404cb7:	83 ee 04 	sub	esi, 4
  404cba:	3b c2 	cmp	eax, edx
  404cbc:	75 f4 	jne	-12 <.text+0x3CB2>
  404cbe:	39 45 20 	cmp	dword ptr [ebp + 32], eax
  404cc1:	89 45 e8 	mov	dword ptr [ebp - 24], eax
  404cc4:	76 03 	jbe	3 <.text+0x3CC9>
  404cc6:	89 45 20 	mov	dword ptr [ebp + 32], eax
  404cc9:	8b 75 20 	mov	esi, dword ptr [ebp + 32]
  404ccc:	d3 e3 	shl	ebx, cl
  404cce:	3b c8 	cmp	ecx, eax
  404cd0:	89 37 	mov	dword ptr [edi], esi
  404cd2:	73 16 	jae	22 <.text+0x3CEA>
  404cd4:	8d 74 8d 8c 	lea	esi, [ebp + 4*ecx - 116]
  404cd8:	2b 1e 	sub	ebx, dword ptr [esi]
  404cda:	0f 88 30 01 00 00 	js	304 <.text+0x3E10>
  404ce0:	41 	inc	ecx
  404ce1:	83 c6 04 	add	esi, 4
  404ce4:	d1 e3 	shl	ebx
  404ce6:	3b c8 	cmp	ecx, eax
  404ce8:	72 ee 	jb	-18 <.text+0x3CD8>
  404cea:	8b f0 	mov	esi, eax
  404cec:	c1 e6 02 	shl	esi, 2
  404cef:	8b 7c 35 8c 	mov	edi, dword ptr [ebp + esi - 116]
  404cf3:	8d 4c 35 8c 	lea	ecx, [ebp + esi - 116]
  404cf7:	2b df 	sub	ebx, edi
  404cf9:	89 5d d0 	mov	dword ptr [ebp - 48], ebx
  404cfc:	0f 88 0e 01 00 00 	js	270 <.text+0x3E10>
  404d02:	03 fb 	add	edi, ebx
  404d04:	89 95 50 ff ff ff 	mov	dword ptr [ebp - 176], edx
  404d0a:	89 39 	mov	dword ptr [ecx], edi
  404d0c:	33 c9 	xor	ecx, ecx
  404d0e:	48 	dec	eax
  404d0f:	74 13 	je	19 <.text+0x3D24>
  404d11:	33 ff 	xor	edi, edi
  404d13:	03 4c 3d 90 	add	ecx, dword ptr [ebp + edi - 112]
  404d17:	83 c7 04 	add	edi, 4
  404d1a:	48 	dec	eax
  404d1b:	89 8c 3d 50 ff ff ff 	mov	dword ptr [ebp + edi - 176], ecx
  404d22:	75 ef 	jne	-17 <.text+0x3D13>
  404d24:	8b 5d 08 	mov	ebx, dword ptr [ebp + 8]
  404d27:	33 ff 	xor	edi, edi
  404d29:	8b 03 	mov	eax, dword ptr [ebx]
  404d2b:	83 c3 04 	add	ebx, 4
  404d2e:	3b c2 	cmp	eax, edx
  404d30:	74 19 	je	25 <.text+0x3D4B>
  404d32:	8b 8c 85 4c ff ff ff 	mov	ecx, dword ptr [ebp + 4*eax - 180]
  404d39:	8b 55 2c 	mov	edx, dword ptr [ebp + 44]
  404d3c:	8d 84 85 4c ff ff ff 	lea	eax, [ebp + 4*eax - 180]
  404d43:	89 3c 8a 	mov	dword ptr [edx + 4*ecx], edi
  404d46:	41 	inc	ecx
  404d47:	89 08 	mov	dword ptr [eax], ecx
  404d49:	33 d2 	xor	edx, edx
  404d4b:	47 	inc	edi
  404d4c:	3b 7d 0c 	cmp	edi, dword ptr [ebp + 12]
  404d4f:	72 d8 	jb	-40 <.text+0x3D29>
  404d51:	8b 84 35 4c ff ff ff 	mov	eax, dword ptr [ebp + esi - 180]
  404d58:	8b 5d 20 	mov	ebx, dword ptr [ebp + 32]
  404d5b:	83 4d f8 ff 	or	dword ptr [ebp - 8], -1
  404d5f:	89 45 0c 	mov	dword ptr [ebp + 12], eax
  404d62:	8b 45 2c 	mov	eax, dword ptr [ebp + 44]
  404d65:	89 55 f4 	mov	dword ptr [ebp - 12], edx
  404d68:	89 45 f0 	mov	dword ptr [ebp - 16], eax
  404d6b:	8b 45 fc 	mov	eax, dword ptr [ebp - 4]
  404d6e:	f7 db 	neg	ebx
  404d70:	3b 45 e8 	cmp	eax, dword ptr [ebp - 24]
  404d73:	89 95 4c ff ff ff 	mov	dword ptr [ebp - 180], edx
  404d79:	89 95 10 ff ff ff 	mov	dword ptr [ebp - 240], edx
  404d7f:	89 55 e4 	mov	dword ptr [ebp - 28], edx
  404d82:	89 55 08 	mov	dword ptr [ebp + 8], edx
  404d85:	0f 8f fa 01 00 00 	jg	506 <.text+0x3F85>
  404d8b:	8b 7d dc 	mov	edi, dword ptr [ebp - 36]
  404d8e:	8d 48 ff 	lea	ecx, [eax - 1]
  404d91:	8d 44 85 8c 	lea	eax, [ebp + 4*eax - 116]
  404d95:	89 4d d4 	mov	dword ptr [ebp - 44], ecx
  404d98:	89 45 e0 	mov	dword ptr [ebp - 32], eax
  404d9b:	8b 45 e0 	mov	eax, dword ptr [ebp - 32]
  404d9e:	8b 00 	mov	eax, dword ptr [eax]
  404da0:	8b c8 	mov	ecx, eax
  404da2:	48 	dec	eax
  404da3:	85 c9 	test	ecx, ecx
  404da5:	89 45 ec 	mov	dword ptr [ebp - 20], eax
  404da8:	0f 84 c1 01 00 00 	je	449 <.text+0x3F6F>
  404dae:	8b 45 20 	mov	eax, dword ptr [ebp + 32]
  404db1:	03 c3 	add	eax, ebx
  404db3:	39 45 fc 	cmp	dword ptr [ebp - 4], eax
  404db6:	0f 8e de 00 00 00 	jle	222 <.text+0x3E9A>
  404dbc:	8b 4d 20 	mov	ecx, dword ptr [ebp + 32]
  404dbf:	ff 45 f8 	inc	dword ptr [ebp - 8]
  404dc2:	03 c1 	add	eax, ecx
  404dc4:	03 d9 	add	ebx, ecx
  404dc6:	89 45 cc 	mov	dword ptr [ebp - 52], eax
  404dc9:	8b 45 e8 	mov	eax, dword ptr [ebp - 24]
  404dcc:	2b c3 	sub	eax, ebx
  404dce:	3b c1 	cmp	eax, ecx
  404dd0:	89 45 08 	mov	dword ptr [ebp + 8], eax
  404dd3:	76 03 	jbe	3 <.text+0x3DD8>
  404dd5:	89 4d 08 	mov	dword ptr [ebp + 8], ecx
  404dd8:	8b 4d fc 	mov	ecx, dword ptr [ebp - 4]
  404ddb:	8b 55 ec 	mov	edx, dword ptr [ebp - 20]
  404dde:	6a 01 	push	1
  404de0:	2b cb 	sub	ecx, ebx
  404de2:	58 	pop	eax
  404de3:	d3 e0 	shl	eax, cl
  404de5:	42 	inc	edx
  404de6:	3b c2 	cmp	eax, edx
  404de8:	76 2d 	jbe	45 <.text+0x3E17>
  404dea:	8b 75 e0 	mov	esi, dword ptr [ebp - 32]
  404ded:	83 ca ff 	or	edx, -1
  404df0:	2b 55 ec 	sub	edx, dword ptr [ebp - 20]
  404df3:	03 c2 	add	eax, edx
  404df5:	3b 4d 08 	cmp	ecx, dword ptr [ebp + 8]
  404df8:	73 1d 	jae	29 <.text+0x3E17>
  404dfa:	41 	inc	ecx
  404dfb:	3b 4d 08 	cmp	ecx, dword ptr [ebp + 8]
  404dfe:	73 17 	jae	23 <.text+0x3E17>
  404e00:	8b 56 04 	mov	edx, dword ptr [esi + 4]
  404e03:	83 c6 04 	add	esi, 4
  404e06:	d1 e0 	shl	eax
  404e08:	3b c2 	cmp	eax, edx
  404e0a:	76 0b 	jbe	11 <.text+0x3E17>
  404e0c:	2b c2 	sub	eax, edx
  404e0e:	eb ea 	jmp	-22 <.text+0x3DFA>
  404e10:	6a fd 	push	-3
  404e12:	e9 83 01 00 00 	jmp	387 <.text+0x3F9A>
  404e17:	8b 45 28 	mov	eax, dword ptr [ebp + 40]
  404e1a:	6a 01 	push	1
  404e1c:	5a 	pop	edx
  404e1d:	8b 00 	mov	eax, dword ptr [eax]
  404e1f:	d3 e2 	shl	edx, cl
  404e21:	89 55 08 	mov	dword ptr [ebp + 8], edx
  404e24:	8d 34 10 	lea	esi, [eax + edx]
  404e27:	81 fe a0 05 00 00 	cmp	esi, 1440
  404e2d:	77 e1 	ja	-31 <.text+0x3E10>
  404e2f:	8b 55 24 	mov	edx, dword ptr [ebp + 36]
  404e32:	8d 04 c2 	lea	eax, [edx + 8*eax]
  404e35:	8b 55 f8 	mov	edx, dword ptr [ebp - 8]
  404e38:	89 45 e4 	mov	dword ptr [ebp - 28], eax
  404e3b:	8d 94 95 10 ff ff ff 	lea	edx, [ebp + 4*edx - 240]
  404e42:	89 02 	mov	dword ptr [edx], eax
  404e44:	8b 45 28 	mov	eax, dword ptr [ebp + 40]
  404e47:	89 30 	mov	dword ptr [eax], esi
  404e49:	8b 45 f8 	mov	eax, dword ptr [ebp - 8]
  404e4c:	85 c0 	test	eax, eax
  404e4e:	74 34 	je	52 <.text+0x3E84>
  404e50:	8b 75 f4 	mov	esi, dword ptr [ebp - 12]
  404e53:	8b 7d e4 	mov	edi, dword ptr [ebp - 28]
  404e56:	89 b4 85 4c ff ff ff 	mov	dword ptr [ebp + 4*eax - 180], esi
  404e5d:	8b 45 20 	mov	eax, dword ptr [ebp + 32]
  404e60:	88 4d d8 	mov	byte ptr [ebp - 40], cl
  404e63:	8b cb 	mov	ecx, ebx
  404e65:	88 45 d9 	mov	byte ptr [ebp - 39], al
  404e68:	2b c8 	sub	ecx, eax
  404e6a:	8b c6 	mov	eax, esi
  404e6c:	d3 e8 	shr	eax, cl
  404e6e:	8b 4a fc 	mov	ecx, dword ptr [edx - 4]
  404e71:	8b 55 d8 	mov	edx, dword ptr [ebp - 40]
  404e74:	2b f9 	sub	edi, ecx
  404e76:	c1 ff 03 	sar	edi, 3
  404e79:	2b f8 	sub	edi, eax
  404e7b:	89 14 c1 	mov	dword ptr [ecx + 8*eax], edx
  404e7e:	89 7c c1 04 	mov	dword ptr [ecx + 8*eax + 4], edi
  404e82:	eb 08 	jmp	8 <.text+0x3E8C>
  404e84:	8b 45 1c 	mov	eax, dword ptr [ebp + 28]
  404e87:	8b 4d e4 	mov	ecx, dword ptr [ebp - 28]
  404e8a:	89 08 	mov	dword ptr [eax], ecx
  404e8c:	8b 45 cc 	mov	eax, dword ptr [ebp - 52]
  404e8f:	39 45 fc 	cmp	dword ptr [ebp - 4], eax
  404e92:	0f 8f 24 ff ff ff 	jg	-220 <.text+0x3DBC>
  404e98:	33 d2 	xor	edx, edx
  404e9a:	8a 45 fc 	mov	al, byte ptr [ebp - 4]
  404e9d:	8b 4d 0c 	mov	ecx, dword ptr [ebp + 12]
  404ea0:	2a c3 	sub	al, bl
  404ea2:	88 45 d9 	mov	byte ptr [ebp - 39], al
  404ea5:	8b 45 2c 	mov	eax, dword ptr [ebp + 44]
  404ea8:	8d 0c 88 	lea	ecx, [eax + 4*ecx]
  404eab:	8b 45 f0 	mov	eax, dword ptr [ebp - 16]
  404eae:	3b c1 	cmp	eax, ecx
  404eb0:	72 06 	jb	6 <.text+0x3EB8>
  404eb2:	c6 45 d8 c0 	mov	byte ptr [ebp - 40], -64
  404eb6:	eb 37 	jmp	55 <.text+0x3EEF>
  404eb8:	8b 00 	mov	eax, dword ptr [eax]
  404eba:	3b 45 10 	cmp	eax, dword ptr [ebp + 16]
  404ebd:	73 14 	jae	20 <.text+0x3ED3>
  404ebf:	3d 00 01 00 00 	cmp	eax, 256
  404ec4:	8b f8 	mov	edi, eax
  404ec6:	1a c9 	sbb	cl, cl
  404ec8:	80 e1 a0 	and	cl, -96
  404ecb:	80 c1 60 	add	cl, 96
  404ece:	88 4d d8 	mov	byte ptr [ebp - 40], cl
  404ed1:	eb 18 	jmp	24 <.text+0x3EEB>
  404ed3:	2b 45 10 	sub	eax, dword ptr [ebp + 16]
  404ed6:	8b 4d 18 	mov	ecx, dword ptr [ebp + 24]
  404ed9:	c1 e0 02 	shl	eax, 2
  404edc:	8a 0c 08 	mov	cl, byte ptr [eax + ecx]
  404edf:	80 c1 50 	add	cl, 80
  404ee2:	88 4d d8 	mov	byte ptr [ebp - 40], cl
  404ee5:	8b 4d 14 	mov	ecx, dword ptr [ebp + 20]
  404ee8:	8b 3c 08 	mov	edi, dword ptr [eax + ecx]
  404eeb:	83 45 f0 04 	add	dword ptr [ebp - 16], 4
  404eef:	8b 4d fc 	mov	ecx, dword ptr [ebp - 4]
  404ef2:	8b 45 f4 	mov	eax, dword ptr [ebp - 12]
  404ef5:	6a 01 	push	1
  404ef7:	2b cb 	sub	ecx, ebx
  404ef9:	5e 	pop	esi
  404efa:	d3 e6 	shl	esi, cl
  404efc:	8b cb 	mov	ecx, ebx
  404efe:	d3 e8 	shr	eax, cl
  404f00:	3b 45 08 	cmp	eax, dword ptr [ebp + 8]
  404f03:	73 1e 	jae	30 <.text+0x3F23>
  404f05:	8b 4d e4 	mov	ecx, dword ptr [ebp - 28]
  404f08:	8d 0c c1 	lea	ecx, [ecx + 8*eax]
  404f0b:	8b 55 d8 	mov	edx, dword ptr [ebp - 40]
  404f0e:	03 c6 	add	eax, esi
  404f10:	89 11 	mov	dword ptr [ecx], edx
  404f12:	8b d6 	mov	edx, esi
  404f14:	c1 e2 03 	shl	edx, 3
  404f17:	89 79 04 	mov	dword ptr [ecx + 4], edi
  404f1a:	03 ca 	add	ecx, edx
  404f1c:	3b 45 08 	cmp	eax, dword ptr [ebp + 8]
  404f1f:	72 ea 	jb	-22 <.text+0x3F0B>
  404f21:	33 d2 	xor	edx, edx
  404f23:	8b 4d d4 	mov	ecx, dword ptr [ebp - 44]
  404f26:	6a 01 	push	1
  404f28:	58 	pop	eax
  404f29:	d3 e0 	shl	eax, cl
  404f2b:	8b 4d f4 	mov	ecx, dword ptr [ebp - 12]
  404f2e:	85 c1 	test	ecx, eax
  404f30:	74 06 	je	6 <.text+0x3F38>
  404f32:	33 c8 	xor	ecx, eax
  404f34:	d1 e8 	shr	eax
  404f36:	eb f6 	jmp	-10 <.text+0x3F2E>
  404f38:	33 c8 	xor	ecx, eax
  404f3a:	8b 45 f8 	mov	eax, dword ptr [ebp - 8]
  404f3d:	89 4d f4 	mov	dword ptr [ebp - 12], ecx
  404f40:	8d 84 85 4c ff ff ff 	lea	eax, [ebp + 4*eax - 180]
  404f47:	6a 01 	push	1
  404f49:	8b cb 	mov	ecx, ebx
  404f4b:	5e 	pop	esi
  404f4c:	d3 e6 	shl	esi, cl
  404f4e:	4e 	dec	esi
  404f4f:	23 75 f4 	and	esi, dword ptr [ebp - 12]
  404f52:	3b 30 	cmp	esi, dword ptr [eax]
  404f54:	74 0b 	je	11 <.text+0x3F61>
  404f56:	ff 4d f8 	dec	dword ptr [ebp - 8]
  404f59:	83 e8 04 	sub	eax, 4
  404f5c:	2b 5d 20 	sub	ebx, dword ptr [ebp + 32]
  404f5f:	eb e6 	jmp	-26 <.text+0x3F47>
  404f61:	8b 45 ec 	mov	eax, dword ptr [ebp - 20]
  404f64:	ff 4d ec 	dec	dword ptr [ebp - 20]
  404f67:	85 c0 	test	eax, eax
  404f69:	0f 85 3f fe ff ff 	jne	-449 <.text+0x3DAE>
  404f6f:	ff 45 fc 	inc	dword ptr [ebp - 4]
  404f72:	83 45 e0 04 	add	dword ptr [ebp - 32], 4
  404f76:	8b 45 fc 	mov	eax, dword ptr [ebp - 4]
  404f79:	ff 45 d4 	inc	dword ptr [ebp - 44]
  404f7c:	3b 45 e8 	cmp	eax, dword ptr [ebp - 24]
  404f7f:	0f 8e 16 fe ff ff 	jle	-490 <.text+0x3D9B>
  404f85:	39 55 d0 	cmp	dword ptr [ebp - 48], edx
  404f88:	0f 84 f0 fc ff ff 	je	-784 <.text+0x3C7E>
  404f8e:	83 7d e8 01 	cmp	dword ptr [ebp - 24], 1
  404f92:	0f 84 e6 fc ff ff 	je	-794 <.text+0x3C7E>
  404f98:	6a fb 	push	-5
  404f9a:	58 	pop	eax
  404f9b:	e9 e0 fc ff ff 	jmp	-800 <.text+0x3C80>
  404fa0:	55 	push	ebp
  404fa1:	8b ec 	mov	ebp, esp
  404fa3:	51 	push	ecx
  404fa4:	83 65 fc 00 	and	dword ptr [ebp - 4], 0
  404fa8:	56 	push	esi
  404fa9:	8b 75 18 	mov	esi, dword ptr [ebp + 24]
  404fac:	6a 04 	push	4
  404fae:	6a 13 	push	19
  404fb0:	ff 76 28 	push	dword ptr [esi + 40]
  404fb3:	ff 56 20 	call	dword ptr [esi + 32]
  404fb6:	83 c4 0c 	add	esp, 12
  404fb9:	89 45 18 	mov	dword ptr [ebp + 24], eax
  404fbc:	85 c0 	test	eax, eax
  404fbe:	75 05 	jne	5 <.text+0x3FC5>
  404fc0:	6a fc 	push	-4
  404fc2:	58 	pop	eax
  404fc3:	eb 57 	jmp	87 <.text+0x401C>
  404fc5:	53 	push	ebx
  404fc6:	50 	push	eax
  404fc7:	8d 45 fc 	lea	eax, [ebp - 4]
  404fca:	50 	push	eax
  404fcb:	ff 75 14 	push	dword ptr [ebp + 20]
  404fce:	ff 75 0c 	push	dword ptr [ebp + 12]
  404fd1:	ff 75 10 	push	dword ptr [ebp + 16]
  404fd4:	6a 00 	push	0
  404fd6:	6a 00 	push	0
  404fd8:	6a 13 	push	19
  404fda:	6a 13 	push	19
  404fdc:	ff 75 08 	push	dword ptr [ebp + 8]
  404fdf:	e8 35 fc ff ff 	call	-971 <.text+0x3C19>
  404fe4:	8b d8 	mov	ebx, eax
  404fe6:	83 c4 28 	add	esp, 40
  404fe9:	83 fb fd 	cmp	ebx, -3
  404fec:	75 09 	jne	9 <.text+0x3FF7>
  404fee:	c7 46 18 e4 f6 40 00 	mov	dword ptr [esi + 24], 4257508
  404ff5:	eb 17 	jmp	23 <.text+0x400E>
  404ff7:	83 fb fb 	cmp	ebx, -5
  404ffa:	74 08 	je	8 <.text+0x4004>
  404ffc:	8b 45 0c 	mov	eax, dword ptr [ebp + 12]
  404fff:	83 38 00 	cmp	dword ptr [eax], 0
  405002:	75 0a 	jne	10 <.text+0x400E>
  405004:	6a fd 	push	-3
  405006:	c7 46 18 c0 f6 40 00 	mov	dword ptr [esi + 24], 4257472
  40500d:	5b 	pop	ebx
  40500e:	ff 75 18 	push	dword ptr [ebp + 24]
  405011:	ff 76 28 	push	dword ptr [esi + 40]
  405014:	ff 56 24 	call	dword ptr [esi + 36]
  405017:	59 	pop	ecx
  405018:	8b c3 	mov	eax, ebx
  40501a:	59 	pop	ecx
  40501b:	5b 	pop	ebx
  40501c:	5e 	pop	esi
  40501d:	c9 	leave
  40501e:	c3 	ret
  40501f:	55 	push	ebp
  405020:	8b ec 	mov	ebp, esp
  405022:	51 	push	ecx
  405023:	83 65 fc 00 	and	dword ptr [ebp - 4], 0
  405027:	56 	push	esi
  405028:	8b 75 28 	mov	esi, dword ptr [ebp + 40]
  40502b:	6a 04 	push	4
  40502d:	68 20 01 00 00 	push	288
  405032:	ff 76 28 	push	dword ptr [esi + 40]
  405035:	ff 56 20 	call	dword ptr [esi + 32]
  405038:	83 c4 0c 	add	esp, 12
  40503b:	89 45 28 	mov	dword ptr [ebp + 40], eax
  40503e:	85 c0 	test	eax, eax
  405040:	75 08 	jne	8 <.text+0x404A>
  405042:	6a fc 	push	-4
  405044:	58 	pop	eax
  405045:	e9 d5 00 00 00 	jmp	213 <.text+0x411F>
  40504a:	53 	push	ebx
  40504b:	57 	push	edi
  40504c:	50 	push	eax
  40504d:	8d 45 fc 	lea	eax, [ebp - 4]
  405050:	50 	push	eax
  405051:	8b 5d 08 	mov	ebx, dword ptr [ebp + 8]
  405054:	ff 75 24 	push	dword ptr [ebp + 36]
  405057:	bf 01 01 00 00 	mov	edi, 257
  40505c:	ff 75 14 	push	dword ptr [ebp + 20]
  40505f:	ff 75 1c 	push	dword ptr [ebp + 28]
  405062:	68 e8 ce 40 00 	push	4247272
  405067:	68 6c ce 40 00 	push	4247148
  40506c:	57 	push	edi
  40506d:	53 	push	ebx
  40506e:	ff 75 10 	push	dword ptr [ebp + 16]
  405071:	e8 a3 fb ff ff 	call	-1117 <.text+0x3C19>
  405076:	83 c4 28 	add	esp, 40
  405079:	85 c0 	test	eax, eax
  40507b:	75 74 	jne	116 <.text+0x40F1>
  40507d:	8b 45 14 	mov	eax, dword ptr [ebp + 20]
  405080:	83 38 00 	cmp	dword ptr [eax], 0
  405083:	74 7f 	je	127 <.text+0x4104>
  405085:	ff 75 28 	push	dword ptr [ebp + 40]
  405088:	8d 45 fc 	lea	eax, [ebp - 4]
  40508b:	50 	push	eax
  40508c:	8b 45 10 	mov	eax, dword ptr [ebp + 16]
  40508f:	ff 75 24 	push	dword ptr [ebp + 36]
  405092:	8d 04 98 	lea	eax, [eax + 4*ebx]
  405095:	ff 75 18 	push	dword ptr [ebp + 24]
  405098:	ff 75 20 	push	dword ptr [ebp + 32]
  40509b:	68 dc cf 40 00 	push	4247516
  4050a0:	68 64 cf 40 00 	push	4247396
  4050a5:	6a 00 	push	0
  4050a7:	ff 75 0c 	push	dword ptr [ebp + 12]
  4050aa:	50 	push	eax
  4050ab:	e8 69 fb ff ff 	call	-1175 <.text+0x3C19>
  4050b0:	83 c4 28 	add	esp, 40
  4050b3:	85 c0 	test	eax, eax
  4050b5:	75 10 	jne	16 <.text+0x40C7>
  4050b7:	8b 45 18 	mov	eax, dword ptr [ebp + 24]
  4050ba:	83 38 00 	cmp	dword ptr [eax], 0
  4050bd:	75 04 	jne	4 <.text+0x40C3>
  4050bf:	3b df 	cmp	ebx, edi
  4050c1:	77 25 	ja	37 <.text+0x40E8>
  4050c3:	33 ff 	xor	edi, edi
  4050c5:	eb 49 	jmp	73 <.text+0x4110>
  4050c7:	83 f8 fd 	cmp	eax, -3
  4050ca:	75 09 	jne	9 <.text+0x40D5>
  4050cc:	c7 46 18 90 f7 40 00 	mov	dword ptr [esi + 24], 4257680
  4050d3:	eb 39 	jmp	57 <.text+0x410E>
  4050d5:	83 f8 fb 	cmp	eax, -5
  4050d8:	75 09 	jne	9 <.text+0x40E3>
  4050da:	c7 46 18 74 f7 40 00 	mov	dword ptr [esi + 24], 4257652
  4050e1:	eb 28 	jmp	40 <.text+0x410B>
  4050e3:	83 f8 fc 	cmp	eax, -4
  4050e6:	74 26 	je	38 <.text+0x410E>
  4050e8:	c7 46 18 50 f7 40 00 	mov	dword ptr [esi + 24], 4257616
  4050ef:	eb 1a 	jmp	26 <.text+0x410B>
  4050f1:	83 f8 fd 	cmp	eax, -3
  4050f4:	75 09 	jne	9 <.text+0x40FF>
  4050f6:	c7 46 18 2c f7 40 00 	mov	dword ptr [esi + 24], 4257580
  4050fd:	eb 0f 	jmp	15 <.text+0x410E>
  4050ff:	83 f8 fc 	cmp	eax, -4
  405102:	74 0a 	je	10 <.text+0x410E>
  405104:	c7 46 18 0c f7 40 00 	mov	dword ptr [esi + 24], 4257548
  40510b:	6a fd 	push	-3
  40510d:	58 	pop	eax
  40510e:	8b f8 	mov	edi, eax
  405110:	ff 75 28 	push	dword ptr [ebp + 40]
  405113:	ff 76 28 	push	dword ptr [esi + 40]
  405116:	ff 56 24 	call	dword ptr [esi + 36]
  405119:	59 	pop	ecx
  40511a:	8b c7 	mov	eax, edi
  40511c:	59 	pop	ecx
  40511d:	5f 	pop	edi
  40511e:	5b 	pop	ebx
  40511f:	5e 	pop	esi
  405120:	c9 	leave
  405121:	c3 	ret
  405122:	8b 44 24 04 	mov	eax, dword ptr [esp + 4]
  405126:	c7 00 09 00 00 00 	mov	dword ptr [eax], 9
  40512c:	8b 44 24 08 	mov	eax, dword ptr [esp + 8]
  405130:	c7 00 05 00 00 00 	mov	dword ptr [eax], 5
  405136:	8b 44 24 0c 	mov	eax, dword ptr [esp + 12]
  40513a:	c7 00 f0 bc 40 00 	mov	dword ptr [eax], 4242672
  405140:	8b 44 24 10 	mov	eax, dword ptr [esp + 16]
  405144:	c7 00 f0 cc 40 00 	mov	dword ptr [eax], 4246768
  40514a:	33 c0 	xor	eax, eax
  40514c:	c3 	ret
  40514d:	55 	push	ebp
  40514e:	8b ec 	mov	ebp, esp
  405150:	83 ec 18 	sub	esp, 24
  405153:	53 	push	ebx
  405154:	56 	push	esi
  405155:	8b 75 18 	mov	esi, dword ptr [ebp + 24]
  405158:	57 	push	edi
  405159:	8b 7d 1c 	mov	edi, dword ptr [ebp + 28]
  40515c:	8b 4e 34 	mov	ecx, dword ptr [esi + 52]
  40515f:	8b 56 1c 	mov	edx, dword ptr [esi + 28]
  405162:	8b 07 	mov	eax, dword ptr [edi]
  405164:	89 4d f4 	mov	dword ptr [ebp - 12], ecx
  405167:	89 45 f8 	mov	dword ptr [ebp - 8], eax
  40516a:	8b 47 04 	mov	eax, dword ptr [edi + 4]
  40516d:	89 45 fc 	mov	dword ptr [ebp - 4], eax
  405170:	8b 46 20 	mov	eax, dword ptr [esi + 32]
  405173:	89 45 1c 	mov	dword ptr [ebp + 28], eax
  405176:	8b 46 30 	mov	eax, dword ptr [esi + 48]
  405179:	3b c8 	cmp	ecx, eax
  40517b:	73 05 	jae	5 <.text+0x4182>
  40517d:	2b c1 	sub	eax, ecx
  40517f:	48 	dec	eax
  405180:	eb 05 	jmp	5 <.text+0x4187>
  405182:	8b 46 2c 	mov	eax, dword ptr [esi + 44]
  405185:	2b c1 	sub	eax, ecx
  405187:	89 45 f0 	mov	dword ptr [ebp - 16], eax
  40518a:	8b 45 08 	mov	eax, dword ptr [ebp + 8]
  40518d:	8b 04 85 a8 bc 40 00 	mov	eax, dword ptr [4*eax + 4242600]
  405194:	89 45 ec 	mov	dword ptr [ebp - 20], eax
  405197:	8b 45 0c 	mov	eax, dword ptr [ebp + 12]
  40519a:	8b 04 85 a8 bc 40 00 	mov	eax, dword ptr [4*eax + 4242600]
  4051a1:	89 45 0c 	mov	dword ptr [ebp + 12], eax
  4051a4:	83 fa 14 	cmp	edx, 20
  4051a7:	73 18 	jae	24 <.text+0x41C1>
  4051a9:	8b 45 f8 	mov	eax, dword ptr [ebp - 8]
  4051ac:	ff 4d fc 	dec	dword ptr [ebp - 4]
  4051af:	8b ca 	mov	ecx, edx
  4051b1:	0f b6 00 	movzx	eax, byte ptr [eax]
  4051b4:	d3 e0 	shl	eax, cl
  4051b6:	09 45 1c 	or	dword ptr [ebp + 28], eax
  4051b9:	ff 45 f8 	inc	dword ptr [ebp - 8]
  4051bc:	83 c2 08 	add	edx, 8
  4051bf:	eb e3 	jmp	-29 <.text+0x41A4>
  4051c1:	8b 45 ec 	mov	eax, dword ptr [ebp - 20]
  4051c4:	8b 4d 10 	mov	ecx, dword ptr [ebp + 16]
  4051c7:	23 45 1c 	and	eax, dword ptr [ebp + 28]
  4051ca:	8d 04 c1 	lea	eax, [ecx + 8*eax]
  4051cd:	0f b6 08 	movzx	ecx, byte ptr [eax]
  4051d0:	89 4d 08 	mov	dword ptr [ebp + 8], ecx
  4051d3:	85 c9 	test	ecx, ecx
  4051d5:	0f b6 48 01 	movzx	ecx, byte ptr [eax + 1]
  4051d9:	0f 84 79 01 00 00 	je	377 <.text+0x4358>
  4051df:	d3 6d 1c 	shr	dword ptr [ebp + 28], cl
  4051e2:	0f b6 48 01 	movzx	ecx, byte ptr [eax + 1]
  4051e6:	2b d1 	sub	edx, ecx
  4051e8:	8b 4d 08 	mov	ecx, dword ptr [ebp + 8]
  4051eb:	f6 c1 10 	test	cl, 16
  4051ee:	75 23 	jne	35 <.text+0x4213>
  4051f0:	f6 c1 40 	test	cl, 64
  4051f3:	0f 85 bf 01 00 00 	jne	447 <.text+0x43B8>
  4051f9:	8b 0c 8d a8 bc 40 00 	mov	ecx, dword ptr [4*ecx + 4242600]
  405200:	23 4d 1c 	and	ecx, dword ptr [ebp + 28]
  405203:	03 48 04 	add	ecx, dword ptr [eax + 4]
  405206:	8d 04 c8 	lea	eax, [eax + 8*ecx]
  405209:	0f b6 08 	movzx	ecx, byte ptr [eax]
  40520c:	89 4d 08 	mov	dword ptr [ebp + 8], ecx
  40520f:	85 c9 	test	ecx, ecx
  405211:	eb c2 	jmp	-62 <.text+0x41D5>
  405213:	83 e1 0f 	and	ecx, 15
  405216:	8b 34 8d a8 bc 40 00 	mov	esi, dword ptr [4*ecx + 4242600]
  40521d:	23 75 1c 	and	esi, dword ptr [ebp + 28]
  405220:	d3 6d 1c 	shr	dword ptr [ebp + 28], cl
  405223:	03 70 04 	add	esi, dword ptr [eax + 4]
  405226:	2b d1 	sub	edx, ecx
  405228:	89 75 08 	mov	dword ptr [ebp + 8], esi
  40522b:	83 fa 0f 	cmp	edx, 15
  40522e:	73 18 	jae	24 <.text+0x4248>
  405230:	8b 45 f8 	mov	eax, dword ptr [ebp - 8]
  405233:	ff 4d fc 	dec	dword ptr [ebp - 4]
  405236:	8b ca 	mov	ecx, edx
  405238:	0f b6 00 	movzx	eax, byte ptr [eax]
  40523b:	d3 e0 	shl	eax, cl
  40523d:	09 45 1c 	or	dword ptr [ebp + 28], eax
  405240:	ff 45 f8 	inc	dword ptr [ebp - 8]
  405243:	83 c2 08 	add	edx, 8
  405246:	eb e3 	jmp	-29 <.text+0x422B>
  405248:	8b 45 0c 	mov	eax, dword ptr [ebp + 12]
  40524b:	8b 4d 14 	mov	ecx, dword ptr [ebp + 20]
  40524e:	23 45 1c 	and	eax, dword ptr [ebp + 28]
  405251:	0f b6 1c c1 	movzx	ebx, byte ptr [ecx + 8*eax]
  405255:	8d 04 c1 	lea	eax, [ecx + 8*eax]
  405258:	0f b6 48 01 	movzx	ecx, byte ptr [eax + 1]
  40525c:	d3 6d 1c 	shr	dword ptr [ebp + 28], cl
  40525f:	0f b6 48 01 	movzx	ecx, byte ptr [eax + 1]
  405263:	2b d1 	sub	edx, ecx
  405265:	f6 c3 10 	test	bl, 16
  405268:	75 2b 	jne	43 <.text+0x4295>
  40526a:	f6 c3 40 	test	bl, 64
  40526d:	0f 85 10 01 00 00 	jne	272 <.text+0x4383>
  405273:	8b 0c 9d a8 bc 40 00 	mov	ecx, dword ptr [4*ebx + 4242600]
  40527a:	23 4d 1c 	and	ecx, dword ptr [ebp + 28]
  40527d:	03 48 04 	add	ecx, dword ptr [eax + 4]
  405280:	0f b6 1c c8 	movzx	ebx, byte ptr [eax + 8*ecx]
  405284:	8d 04 c8 	lea	eax, [eax + 8*ecx]
  405287:	0f b6 48 01 	movzx	ecx, byte ptr [eax + 1]
  40528b:	d3 6d 1c 	shr	dword ptr [ebp + 28], cl
  40528e:	89 4d e8 	mov	dword ptr [ebp - 24], ecx
  405291:	2b d1 	sub	edx, ecx
  405293:	eb d0 	jmp	-48 <.text+0x4265>
  405295:	83 e3 0f 	and	ebx, 15
  405298:	3b d3 	cmp	edx, ebx
  40529a:	73 18 	jae	24 <.text+0x42B4>
  40529c:	8b 4d f8 	mov	ecx, dword ptr [ebp - 8]
  40529f:	ff 4d fc 	dec	dword ptr [ebp - 4]
  4052a2:	0f b6 31 	movzx	esi, byte ptr [ecx]
  4052a5:	8b ca 	mov	ecx, edx
  4052a7:	d3 e6 	shl	esi, cl
  4052a9:	09 75 1c 	or	dword ptr [ebp + 28], esi
  4052ac:	ff 45 f8 	inc	dword ptr [ebp - 8]
  4052af:	83 c2 08 	add	edx, 8
  4052b2:	eb e4 	jmp	-28 <.text+0x4298>
  4052b4:	8b 34 9d a8 bc 40 00 	mov	esi, dword ptr [4*ebx + 4242600]
  4052bb:	8b cb 	mov	ecx, ebx
  4052bd:	23 75 1c 	and	esi, dword ptr [ebp + 28]
  4052c0:	2b d3 	sub	edx, ebx
  4052c2:	d3 6d 1c 	shr	dword ptr [ebp + 28], cl
  4052c5:	03 70 04 	add	esi, dword ptr [eax + 4]
  4052c8:	8b 45 08 	mov	eax, dword ptr [ebp + 8]
  4052cb:	8b 4d f4 	mov	ecx, dword ptr [ebp - 12]
  4052ce:	29 45 f0 	sub	dword ptr [ebp - 16], eax
  4052d1:	8b 5d 18 	mov	ebx, dword ptr [ebp + 24]
  4052d4:	8b c1 	mov	eax, ecx
  4052d6:	2b c6 	sub	eax, esi
  4052d8:	8b 73 28 	mov	esi, dword ptr [ebx + 40]
  4052db:	3b c6 	cmp	eax, esi
  4052dd:	73 5b 	jae	91 <.text+0x433A>
  4052df:	8b 5b 2c 	mov	ebx, dword ptr [ebx + 44]
  4052e2:	89 5d e8 	mov	dword ptr [ebp - 24], ebx
  4052e5:	2b de 	sub	ebx, esi
  4052e7:	03 c3 	add	eax, ebx
  4052e9:	3b c6 	cmp	eax, esi
  4052eb:	72 fa 	jb	-6 <.text+0x42E7>
  4052ed:	8b 75 e8 	mov	esi, dword ptr [ebp - 24]
  4052f0:	2b f0 	sub	esi, eax
  4052f2:	39 75 08 	cmp	dword ptr [ebp + 8], esi
  4052f5:	76 1f 	jbe	31 <.text+0x4316>
  4052f7:	29 75 08 	sub	dword ptr [ebp + 8], esi
  4052fa:	8a 18 	mov	bl, byte ptr [eax]
  4052fc:	88 19 	mov	byte ptr [ecx], bl
  4052fe:	41 	inc	ecx
  4052ff:	40 	inc	eax
  405300:	4e 	dec	esi
  405301:	75 f7 	jne	-9 <.text+0x42FA>
  405303:	8b 45 18 	mov	eax, dword ptr [ebp + 24]
  405306:	8b 70 28 	mov	esi, dword ptr [eax + 40]
  405309:	8a 06 	mov	al, byte ptr [esi]
  40530b:	88 01 	mov	byte ptr [ecx], al
  40530d:	41 	inc	ecx
  40530e:	46 	inc	esi
  40530f:	ff 4d 08 	dec	dword ptr [ebp + 8]
  405312:	75 f5 	jne	-11 <.text+0x4309>
  405314:	eb 1c 	jmp	28 <.text+0x4332>
  405316:	8a 18 	mov	bl, byte ptr [eax]
  405318:	88 19 	mov	byte ptr [ecx], bl
  40531a:	8a 58 01 	mov	bl, byte ptr [eax + 1]
  40531d:	41 	inc	ecx
  40531e:	40 	inc	eax
  40531f:	88 19 	mov	byte ptr [ecx], bl
  405321:	41 	inc	ecx
  405322:	40 	inc	eax
  405323:	83 6d 08 02 	sub	dword ptr [ebp + 8], 2
  405327:	8a 18 	mov	bl, byte ptr [eax]
  405329:	88 19 	mov	byte ptr [ecx], bl
  40532b:	41 	inc	ecx
  40532c:	40 	inc	eax
  40532d:	ff 4d 08 	dec	dword ptr [ebp + 8]
  405330:	75 f5 	jne	-11 <.text+0x4327>
  405332:	8b 75 18 	mov	esi, dword ptr [ebp + 24]
  405335:	89 4d f4 	mov	dword ptr [ebp - 12], ecx
  405338:	eb 35 	jmp	53 <.text+0x436F>
  40533a:	8a 18 	mov	bl, byte ptr [eax]
  40533c:	88 19 	mov	byte ptr [ecx], bl
  40533e:	8a 58 01 	mov	bl, byte ptr [eax + 1]
  405341:	41 	inc	ecx
  405342:	40 	inc	eax
  405343:	88 19 	mov	byte ptr [ecx], bl
  405345:	41 	inc	ecx
  405346:	40 	inc	eax
  405347:	83 6d 08 02 	sub	dword ptr [ebp + 8], 2
  40534b:	8a 18 	mov	bl, byte ptr [eax]
  40534d:	88 19 	mov	byte ptr [ecx], bl
  40534f:	41 	inc	ecx
  405350:	40 	inc	eax
  405351:	ff 4d 08 	dec	dword ptr [ebp + 8]
  405354:	75 f5 	jne	-11 <.text+0x434B>
  405356:	eb da 	jmp	-38 <.text+0x4332>
  405358:	d3 6d 1c 	shr	dword ptr [ebp + 28], cl
  40535b:	0f b6 48 01 	movzx	ecx, byte ptr [eax + 1]
  40535f:	8a 40 04 	mov	al, byte ptr [eax + 4]
  405362:	2b d1 	sub	edx, ecx
  405364:	8b 4d f4 	mov	ecx, dword ptr [ebp - 12]
  405367:	ff 45 f4 	inc	dword ptr [ebp - 12]
  40536a:	ff 4d f0 	dec	dword ptr [ebp - 16]
  40536d:	88 01 	mov	byte ptr [ecx], al
  40536f:	81 7d f0 02 01 00 00 	cmp	dword ptr [ebp - 16], 258
  405376:	72 2b 	jb	43 <.text+0x43A3>
  405378:	83 7d fc 0a 	cmp	dword ptr [ebp - 4], 10
  40537c:	72 25 	jb	37 <.text+0x43A3>
  40537e:	e9 21 fe ff ff 	jmp	-479 <.text+0x41A4>
  405383:	8b 4f 04 	mov	ecx, dword ptr [edi + 4]
  405386:	8b c2 	mov	eax, edx
  405388:	2b 4d fc 	sub	ecx, dword ptr [ebp - 4]
  40538b:	c7 47 18 18 f6 40 00 	mov	dword ptr [edi + 24], 4257304
  405392:	c1 e8 03 	shr	eax, 3
  405395:	3b c1 	cmp	eax, ecx
  405397:	73 02 	jae	2 <.text+0x439B>
  405399:	8b c8 	mov	ecx, eax
  40539b:	8b 75 18 	mov	esi, dword ptr [ebp + 24]
  40539e:	6a fd 	push	-3
  4053a0:	58 	pop	eax
  4053a1:	eb 4a 	jmp	74 <.text+0x43ED>
  4053a3:	8b 4f 04 	mov	ecx, dword ptr [edi + 4]
  4053a6:	8b c2 	mov	eax, edx
  4053a8:	2b 4d fc 	sub	ecx, dword ptr [ebp - 4]
  4053ab:	c1 e8 03 	shr	eax, 3
  4053ae:	3b c1 	cmp	eax, ecx
  4053b0:	73 02 	jae	2 <.text+0x43B4>
  4053b2:	8b c8 	mov	ecx, eax
  4053b4:	33 c0 	xor	eax, eax
  4053b6:	eb 35 	jmp	53 <.text+0x43ED>
  4053b8:	f6 c1 20 	test	cl, 32
  4053bb:	74 15 	je	21 <.text+0x43D2>
  4053bd:	8b 4f 04 	mov	ecx, dword ptr [edi + 4]
  4053c0:	8b c2 	mov	eax, edx
  4053c2:	2b 4d fc 	sub	ecx, dword ptr [ebp - 4]
  4053c5:	c1 e8 03 	shr	eax, 3
  4053c8:	3b c1 	cmp	eax, ecx
  4053ca:	73 02 	jae	2 <.text+0x43CE>
  4053cc:	8b c8 	mov	ecx, eax
  4053ce:	6a 01 	push	1
  4053d0:	eb 1a 	jmp	26 <.text+0x43EC>
  4053d2:	8b 4f 04 	mov	ecx, dword ptr [edi + 4]
  4053d5:	8b c2 	mov	eax, edx
  4053d7:	2b 4d fc 	sub	ecx, dword ptr [ebp - 4]
  4053da:	c7 47 18 30 f6 40 00 	mov	dword ptr [edi + 24], 4257328
  4053e1:	c1 e8 03 	shr	eax, 3
  4053e4:	3b c1 	cmp	eax, ecx
  4053e6:	73 02 	jae	2 <.text+0x43EA>
  4053e8:	8b c8 	mov	ecx, eax
  4053ea:	6a fd 	push	-3
  4053ec:	58 	pop	eax
  4053ed:	8b 5d 1c 	mov	ebx, dword ptr [ebp + 28]
  4053f0:	29 4d f8 	sub	dword ptr [ebp - 8], ecx
  4053f3:	89 5e 20 	mov	dword ptr [esi + 32], ebx
  4053f6:	8b d9 	mov	ebx, ecx
  4053f8:	c1 e3 03 	shl	ebx, 3
  4053fb:	2b d3 	sub	edx, ebx
  4053fd:	89 56 1c 	mov	dword ptr [esi + 28], edx
  405400:	8b 55 fc 	mov	edx, dword ptr [ebp - 4]
  405403:	03 ca 	add	ecx, edx
  405405:	89 4f 04 	mov	dword ptr [edi + 4], ecx
  405408:	8b 4d f8 	mov	ecx, dword ptr [ebp - 8]
  40540b:	8b d1 	mov	edx, ecx
  40540d:	2b 17 	sub	edx, dword ptr [edi]
  40540f:	89 0f 	mov	dword ptr [edi], ecx
  405411:	8b 4d f4 	mov	ecx, dword ptr [ebp - 12]
  405414:	01 57 08 	add	dword ptr [edi + 8], edx
  405417:	89 4e 34 	mov	dword ptr [esi + 52], ecx
  40541a:	5f 	pop	edi
  40541b:	5e 	pop	esi
  40541c:	5b 	pop	ebx
  40541d:	c9 	leave
  40541e:	c3 	ret
  40541f:	55 	push	ebp
  405420:	8b ec 	mov	ebp, esp
  405422:	8b 55 0c 	mov	edx, dword ptr [ebp + 12]
  405425:	85 d2 	test	edx, edx
  405427:	75 04 	jne	4 <.text+0x442D>
  405429:	33 c0 	xor	eax, eax
  40542b:	5d 	pop	ebp
  40542c:	c3 	ret
  40542d:	8b 45 08 	mov	eax, dword ptr [ebp + 8]
  405430:	83 7d 10 08 	cmp	dword ptr [ebp + 16], 8
  405434:	56 	push	esi
  405435:	57 	push	edi
  405436:	f7 d0 	not	eax
  405438:	b9 ff 00 00 00 	mov	ecx, 255
  40543d:	0f 82 cb 00 00 00 	jb	203 <.text+0x450E>
  405443:	8b 7d 10 	mov	edi, dword ptr [ebp + 16]
  405446:	53 	push	ebx
  405447:	c1 ef 03 	shr	edi, 3
  40544a:	0f b6 1a 	movzx	ebx, byte ptr [edx]
  40544d:	8b f0 	mov	esi, eax
  40544f:	83 6d 10 08 	sub	dword ptr [ebp + 16], 8
  405453:	23 f1 	and	esi, ecx
  405455:	33 f3 	xor	esi, ebx
  405457:	8b d8 	mov	ebx, eax
  405459:	c1 eb 08 	shr	ebx, 8
  40545c:	8b 04 b5 54 d0 40 00 	mov	eax, dword ptr [4*esi + 4247636]
  405463:	33 c3 	xor	eax, ebx
  405465:	42 	inc	edx
  405466:	8b f0 	mov	esi, eax
  405468:	0f b6 1a 	movzx	ebx, byte ptr [edx]
  40546b:	23 f1 	and	esi, ecx
  40546d:	33 f3 	xor	esi, ebx
  40546f:	0f b6 5a 01 	movzx	ebx, byte ptr [edx + 1]
  405473:	8b 34 b5 54 d0 40 00 	mov	esi, dword ptr [4*esi + 4247636]
  40547a:	c1 e8 08 	shr	eax, 8
  40547d:	33 f0 	xor	esi, eax
  40547f:	42 	inc	edx
  405480:	8b c6 	mov	eax, esi
  405482:	23 c1 	and	eax, ecx
  405484:	33 c3 	xor	eax, ebx
  405486:	0f b6 5a 01 	movzx	ebx, byte ptr [edx + 1]
  40548a:	8b 04 85 54 d0 40 00 	mov	eax, dword ptr [4*eax + 4247636]
  405491:	c1 ee 08 	shr	esi, 8
  405494:	33 c6 	xor	eax, esi
  405496:	42 	inc	edx
  405497:	8b f0 	mov	esi, eax
  405499:	23 f1 	and	esi, ecx
  40549b:	33 f3 	xor	esi, ebx
  40549d:	0f b6 5a 01 	movzx	ebx, byte ptr [edx + 1]
  4054a1:	8b 34 b5 54 d0 40 00 	mov	esi, dword ptr [4*esi + 4247636]
  4054a8:	c1 e8 08 	shr	eax, 8
  4054ab:	33 f0 	xor	esi, eax
  4054ad:	42 	inc	edx
  4054ae:	8b c6 	mov	eax, esi
  4054b0:	23 c1 	and	eax, ecx
  4054b2:	33 c3 	xor	eax, ebx
  4054b4:	0f b6 5a 01 	movzx	ebx, byte ptr [edx + 1]
  4054b8:	8b 04 85 54 d0 40 00 	mov	eax, dword ptr [4*eax + 4247636]
  4054bf:	c1 ee 08 	shr	esi, 8
  4054c2:	33 c6 	xor	eax, esi
  4054c4:	42 	inc	edx
  4054c5:	8b f0 	mov	esi, eax
  4054c7:	23 f1 	and	esi, ecx
  4054c9:	33 f3 	xor	esi, ebx
  4054cb:	0f b6 5a 01 	movzx	ebx, byte ptr [edx + 1]
  4054cf:	8b 34 b5 54 d0 40 00 	mov	esi, dword ptr [4*esi + 4247636]
  4054d6:	c1 e8 08 	shr	eax, 8
  4054d9:	33 f0 	xor	esi, eax
  4054db:	42 	inc	edx
  4054dc:	8b c6 	mov	eax, esi
  4054de:	23 c1 	and	eax, ecx
  4054e0:	33 c3 	xor	eax, ebx
  4054e2:	0f b6 5a 01 	movzx	ebx, byte ptr [edx + 1]
  4054e6:	8b 04 85 54 d0 40 00 	mov	eax, dword ptr [4*eax + 4247636]
  4054ed:	c1 ee 08 	shr	esi, 8
  4054f0:	33 c6 	xor	eax, esi
  4054f2:	42 	inc	edx
  4054f3:	8b f0 	mov	esi, eax
  4054f5:	23 f1 	and	esi, ecx
  4054f7:	33 f3 	xor	esi, ebx
  4054f9:	c1 e8 08 	shr	eax, 8
  4054fc:	8b 34 b5 54 d0 40 00 	mov	esi, dword ptr [4*esi + 4247636]
  405503:	33 c6 	xor	eax, esi
  405505:	42 	inc	edx
  405506:	4f 	dec	edi
  405507:	0f 85 3d ff ff ff 	jne	-195 <.text+0x444A>
  40550d:	5b 	pop	ebx
  40550e:	83 7d 10 00 	cmp	dword ptr [ebp + 16], 0
  405512:	74 1b 	je	27 <.text+0x452F>
  405514:	0f b6 3a 	movzx	edi, byte ptr [edx]
  405517:	8b f0 	mov	esi, eax
  405519:	23 f1 	and	esi, ecx
  40551b:	33 f7 	xor	esi, edi
  40551d:	c1 e8 08 	shr	eax, 8
  405520:	8b 34 b5 54 d0 40 00 	mov	esi, dword ptr [4*esi + 4247636]
  405527:	33 c6 	xor	eax, esi
  405529:	42 	inc	edx
  40552a:	ff 4d 10 	dec	dword ptr [ebp + 16]
  40552d:	75 e5 	jne	-27 <.text+0x4514>
  40552f:	5f 	pop	edi
  405530:	5e 	pop	esi
  405531:	f7 d0 	not	eax
  405533:	5d 	pop	ebp
  405534:	c3 	ret
  405535:	8b 4c 24 04 	mov	ecx, dword ptr [esp + 4]
  405539:	56 	push	esi
  40553a:	57 	push	edi
  40553b:	ba ff 00 00 00 	mov	edx, 255
  405540:	8b 31 	mov	esi, dword ptr [ecx]
  405542:	0f b6 7c 24 10 	movzx	edi, byte ptr [esp + 16]
  405547:	8b c6 	mov	eax, esi
  405549:	23 c2 	and	eax, edx
  40554b:	33 c7 	xor	eax, edi
  40554d:	c1 ee 08 	shr	esi, 8
  405550:	8b 04 85 54 d0 40 00 	mov	eax, dword ptr [4*eax + 4247636]
  405557:	33 c6 	xor	eax, esi
  405559:	8b 71 08 	mov	esi, dword ptr [ecx + 8]
  40555c:	89 01 	mov	dword ptr [ecx], eax
  40555e:	23 c2 	and	eax, edx
  405560:	03 41 04 	add	eax, dword ptr [ecx + 4]
  405563:	8b fe 	mov	edi, esi
  405565:	23 fa 	and	edi, edx
  405567:	69 c0 05 84 08 08 	imul	eax, eax, 134775813
  40556d:	40 	inc	eax
  40556e:	89 41 04 	mov	dword ptr [ecx + 4], eax
  405571:	c1 e8 18 	shr	eax, 24
  405574:	33 c7 	xor	eax, edi
  405576:	5f 	pop	edi
  405577:	c1 ee 08 	shr	esi, 8
  40557a:	8b 04 85 54 d0 40 00 	mov	eax, dword ptr [4*eax + 4247636]
  405581:	33 c6 	xor	eax, esi
  405583:	5e 	pop	esi
  405584:	89 41 08 	mov	dword ptr [ecx + 8], eax
  405587:	c3 	ret
  405588:	8b 44 24 04 	mov	eax, dword ptr [esp + 4]
  40558c:	8b 40 08 	mov	eax, dword ptr [eax + 8]
  40558f:	25 fd ff 00 00 	and	eax, 65533
  405594:	0c 02 	or	al, 2
  405596:	8b c8 	mov	ecx, eax
  405598:	83 f1 01 	xor	ecx, 1
  40559b:	0f af c8 	imul	ecx, eax
  40559e:	33 c0 	xor	eax, eax
  4055a0:	8a c5 	mov	al, ch
  4055a2:	c3 	ret
  4055a3:	55 	push	ebp
  4055a4:	8b ec 	mov	ebp, esp
  4055a6:	ff 75 08 	push	dword ptr [ebp + 8]
  4055a9:	e8 da ff ff ff 	call	-38 <.text+0x4588>
  4055ae:	30 45 0c 	xor	byte ptr [ebp + 12], al
  4055b1:	ff 75 0c 	push	dword ptr [ebp + 12]
  4055b4:	ff 75 08 	push	dword ptr [ebp + 8]
  4055b7:	e8 79 ff ff ff 	call	-135 <.text+0x4535>
  4055bc:	8a 45 0c 	mov	al, byte ptr [ebp + 12]
  4055bf:	83 c4 0c 	add	esp, 12
  4055c2:	5d 	pop	ebp
  4055c3:	c3 	ret
  4055c4:	55 	push	ebp
  4055c5:	8b ec 	mov	ebp, esp
  4055c7:	8b 4d 0c 	mov	ecx, dword ptr [ebp + 12]
  4055ca:	56 	push	esi
  4055cb:	57 	push	edi
  4055cc:	8b 7d 08 	mov	edi, dword ptr [ebp + 8]
  4055cf:	8b f7 	mov	esi, edi
  4055d1:	81 e6 ff ff 00 00 	and	esi, 65535
  4055d7:	c1 ef 10 	shr	edi, 16
  4055da:	85 c9 	test	ecx, ecx
  4055dc:	75 08 	jne	8 <.text+0x45E6>
  4055de:	6a 01 	push	1
  4055e0:	58 	pop	eax
  4055e1:	e9 f3 00 00 00 	jmp	243 <.text+0x46D9>
  4055e6:	83 7d 10 00 	cmp	dword ptr [ebp + 16], 0
  4055ea:	0f 86 e2 00 00 00 	jbe	226 <.text+0x46D2>
  4055f0:	53 	push	ebx
  4055f1:	ba b0 15 00 00 	mov	edx, 5552
  4055f6:	39 55 10 	cmp	dword ptr [ebp + 16], edx
  4055f9:	73 03 	jae	3 <.text+0x45FE>
  4055fb:	8b 55 10 	mov	edx, dword ptr [ebp + 16]
  4055fe:	29 55 10 	sub	dword ptr [ebp + 16], edx
  405601:	83 fa 10 	cmp	edx, 16
  405604:	0f 8c 97 00 00 00 	jl	151 <.text+0x46A1>
  40560a:	8b c2 	mov	eax, edx
  40560c:	c1 e8 04 	shr	eax, 4
  40560f:	8b d8 	mov	ebx, eax
  405611:	f7 db 	neg	ebx
  405613:	c1 e3 04 	shl	ebx, 4
  405616:	03 d3 	add	edx, ebx
  405618:	0f b6 19 	movzx	ebx, byte ptr [ecx]
  40561b:	03 f3 	add	esi, ebx
  40561d:	0f b6 59 01 	movzx	ebx, byte ptr [ecx + 1]
  405621:	03 fe 	add	edi, esi
  405623:	03 f3 	add	esi, ebx
  405625:	0f b6 59 02 	movzx	ebx, byte ptr [ecx + 2]
  405629:	03 fe 	add	edi, esi
  40562b:	03 f3 	add	esi, ebx
  40562d:	0f b6 59 03 	movzx	ebx, byte ptr [ecx + 3]
  405631:	03 fe 	add	edi, esi
  405633:	03 f3 	add	esi, ebx
  405635:	0f b6 59 04 	movzx	ebx, byte ptr [ecx + 4]
  405639:	03 fe 	add	edi, esi
  40563b:	03 f3 	add	esi, ebx
  40563d:	0f b6 59 05 	movzx	ebx, byte ptr [ecx + 5]
  405641:	03 fe 	add	edi, esi
  405643:	03 f3 	add	esi, ebx
  405645:	0f b6 59 06 	movzx	ebx, byte ptr [ecx + 6]
  405649:	03 fe 	add	edi, esi
  40564b:	03 f3 	add	esi, ebx
  40564d:	0f b6 59 07 	movzx	ebx, byte ptr [ecx + 7]
  405651:	03 fe 	add	edi, esi
  405653:	03 f3 	add	esi, ebx
  405655:	0f b6 59 08 	movzx	ebx, byte ptr [ecx + 8]
  405659:	03 fe 	add	edi, esi
  40565b:	03 f3 	add	esi, ebx
  40565d:	0f b6 59 09 	movzx	ebx, byte ptr [ecx + 9]
  405661:	03 fe 	add	edi, esi
  405663:	03 f3 	add	esi, ebx
  405665:	0f b6 59 0a 	movzx	ebx, byte ptr [ecx + 10]
  405669:	03 fe 	add	edi, esi
  40566b:	03 f3 	add	esi, ebx
  40566d:	0f b6 59 0b 	movzx	ebx, byte ptr [ecx + 11]
  405671:	03 fe 	add	edi, esi
  405673:	03 f3 	add	esi, ebx
  405675:	0f b6 59 0c 	movzx	ebx, byte ptr [ecx + 12]
  405679:	03 fe 	add	edi, esi
  40567b:	03 f3 	add	esi, ebx
  40567d:	0f b6 59 0d 	movzx	ebx, byte ptr [ecx + 13]
  405681:	03 fe 	add	edi, esi
  405683:	03 f3 	add	esi, ebx
  405685:	0f b6 59 0e 	movzx	ebx, byte ptr [ecx + 14]
  405689:	03 fe 	add	edi, esi
  40568b:	03 f3 	add	esi, ebx
  40568d:	0f b6 59 0f 	movzx	ebx, byte ptr [ecx + 15]
  405691:	03 fe 	add	edi, esi
  405693:	03 f3 	add	esi, ebx
  405695:	03 fe 	add	edi, esi
  405697:	83 c1 10 	add	ecx, 16
  40569a:	48 	dec	eax
  40569b:	0f 85 77 ff ff ff 	jne	-137 <.text+0x4618>
  4056a1:	85 d2 	test	edx, edx
  4056a3:	74 0b 	je	11 <.text+0x46B0>
  4056a5:	0f b6 01 	movzx	eax, byte ptr [ecx]
  4056a8:	03 f0 	add	esi, eax
  4056aa:	41 	inc	ecx
  4056ab:	03 fe 	add	edi, esi
  4056ad:	4a 	dec	edx
  4056ae:	75 f5 	jne	-11 <.text+0x46A5>
  4056b0:	bb f1 ff 00 00 	mov	ebx, 65521
  4056b5:	8b c6 	mov	eax, esi
  4056b7:	33 d2 	xor	edx, edx
  4056b9:	8b f3 	mov	esi, ebx
  4056bb:	f7 f6 	div	esi
  4056bd:	8b c7 	mov	eax, edi
  4056bf:	8b f2 	mov	esi, edx
  4056c1:	33 d2 	xor	edx, edx
  4056c3:	f7 f3 	div	ebx
  4056c5:	83 7d 10 00 	cmp	dword ptr [ebp + 16], 0
  4056c9:	8b fa 	mov	edi, edx
  4056cb:	0f 87 20 ff ff ff 	ja	-224 <.text+0x45F1>
  4056d1:	5b 	pop	ebx
  4056d2:	8b c7 	mov	eax, edi
  4056d4:	c1 e0 10 	shl	eax, 16
  4056d7:	0b c6 	or	eax, esi
  4056d9:	5f 	pop	edi
  4056da:	5e 	pop	esi
  4056db:	5d 	pop	ebp
  4056dc:	c3 	ret
  4056dd:	ff 74 24 0c 	push	dword ptr [esp + 12]
  4056e1:	ff 74 24 0c 	push	dword ptr [esp + 12]
  4056e5:	ff 15 8c 81 40 00 	call	dword ptr [4227468]
  4056eb:	59 	pop	ecx
  4056ec:	59 	pop	ecx
  4056ed:	c3 	ret
  4056ee:	ff 74 24 08 	push	dword ptr [esp + 8]
  4056f2:	ff 15 74 81 40 00 	call	dword ptr [4227444]
  4056f8:	59 	pop	ecx
  4056f9:	c3 	ret
  4056fa:	8b 44 24 04 	mov	eax, dword ptr [esp + 4]
  4056fe:	33 d2 	xor	edx, edx
  405700:	3b c2 	cmp	eax, edx
  405702:	74 31 	je	49 <.text+0x4735>
  405704:	8b 48 1c 	mov	ecx, dword ptr [eax + 28]
  405707:	3b ca 	cmp	ecx, edx
  405709:	74 2a 	je	42 <.text+0x4735>
  40570b:	56 	push	esi
  40570c:	89 50 14 	mov	dword ptr [eax + 20], edx
  40570f:	89 50 08 	mov	dword ptr [eax + 8], edx
  405712:	89 50 18 	mov	dword ptr [eax + 24], edx
